11333	081109 203715 35 INFO dfs.FSNamesystem: BLOCK* NameSystem.addStoredBlock: blockMap updated: 10.250.5.161:50010 is added to blk_447524195489451623 size 67108864
11334	081109 203715 35 INFO dfs.FSNamesystem: BLOCK* NameSystem.addStoredBlock: blockMap updated: 10.250.7.244:50010 is added to blk_-4704451547769328589 size 67108864
11335	081109 203715 35 INFO dfs.FSNamesystem: BLOCK* NameSystem.addStoredBlock: blockMap updated: 10.251.106.37:50010 is added to blk_-2402004651648010398 size 67108864
11336	081109 203715 35 INFO dfs.FSNamesystem: BLOCK* NameSystem.addStoredBlock: blockMap updated: 10.251.195.70:50010 is added to blk_1876581258137720325 size 67108864
11337	081109 203715 35 INFO dfs.FSNamesystem: BLOCK* NameSystem.addStoredBlock: blockMap updated: 10.251.195.70:50010 is added to blk_-8390239296930701271 size 67108864
11338	081109 203715 35 INFO dfs.FSNamesystem: BLOCK* NameSystem.allocateBlock: /user/root/rand/_temporary/_task_200811092030_0001_m_000249_0/part-00249. blk_-8232805807553023433
11339	081109 203715 35 INFO dfs.FSNamesystem: BLOCK* NameSystem.allocateBlock: /user/root/rand/_temporary/_task_200811092030_0001_m_000255_0/part-00255. blk_1113822473565022381
11340	081109 203716 13 INFO dfs.DataBlockScanner: Verification succeeded for blk_-1470784088028862059
11341	081109 203716 168 INFO dfs.DataNode$PacketResponder: PacketResponder 2 for block blk_7299155215022858120 terminating
11342	081109 203716 168 INFO dfs.DataNode$PacketResponder: Received block blk_7299155215022858120 of size 67108864 from /10.251.203.4
11343	081109 203716 178 INFO dfs.DataNode$PacketResponder: PacketResponder 1 for block blk_7299155215022858120 terminating
11344	081109 203716 178 INFO dfs.DataNode$PacketResponder: Received block blk_7299155215022858120 of size 67108864 from /10.251.203.4
11345	081109 203716 181 INFO dfs.DataNode$PacketResponder: PacketResponder 0 for block blk_5307863097968695533 terminating
11346	081109 203716 181 INFO dfs.DataNode$PacketResponder: PacketResponder 1 for block blk_5307863097968695533 terminating
11347	081109 203716 181 INFO dfs.DataNode$PacketResponder: Received block blk_5307863097968695533 of size 67108864 from /10.250.10.213
11348	081109 203716 181 INFO dfs.DataNode$PacketResponder: Received block blk_5307863097968695533 of size 67108864 from /10.251.74.134
11349	081109 203716 182 INFO dfs.DataNode$PacketResponder: PacketResponder 0 for block blk_7299155215022858120 terminating
11350	081109 203716 182 INFO dfs.DataNode$PacketResponder: PacketResponder 1 for block blk_-3043861027862076957 terminating
11351	081109 203716 182 INFO dfs.DataNode$PacketResponder: PacketResponder 2 for block blk_-8495497618534328697 terminating
11352	081109 203716 182 INFO dfs.DataNode$PacketResponder: Received block blk_-3043861027862076957 of size 67108864 from /10.251.111.228
11353	081109 203716 182 INFO dfs.DataNode$PacketResponder: Received block blk_7299155215022858120 of size 67108864 from /10.251.203.129
11354	081109 203716 182 INFO dfs.DataNode$PacketResponder: Received block blk_-8495497618534328697 of size 67108864 from /10.251.66.3
11355	081109 203716 184 INFO dfs.DataNode$PacketResponder: PacketResponder 2 for block blk_-7678475058431153610 terminating
11356	081109 203716 184 INFO dfs.DataNode$PacketResponder: Received block blk_-7678475058431153610 of size 67108864 from /10.251.109.236
11357	081109 203716 188 INFO dfs.DataNode$PacketResponder: PacketResponder 0 for block blk_-8495497618534328697 terminating
11358	081109 203716 188 INFO dfs.DataNode$PacketResponder: Received block blk_-8495497618534328697 of size 67108864 from /10.251.71.16
11359	081109 203716 189 INFO dfs.DataNode$PacketResponder: PacketResponder 1 for block blk_1261362019224683494 terminating
11360	081109 203716 189 INFO dfs.DataNode$PacketResponder: PacketResponder 2 for block blk_7214885953979232621 terminating
11361	081109 203716 189 INFO dfs.DataNode$PacketResponder: Received block blk_1261362019224683494 of size 67108864 from /10.251.42.9
11362	081109 203716 189 INFO dfs.DataNode$PacketResponder: Received block blk_7214885953979232621 of size 67108864 from /10.251.31.242
11363	081109 203716 190 INFO dfs.DataNode$PacketResponder: PacketResponder 0 for block blk_-1566629900358427030 terminating
11364	081109 203716 190 INFO dfs.DataNode$PacketResponder: PacketResponder 1 for block blk_-8495497618534328697 terminating
11365	081109 203716 190 INFO dfs.DataNode$PacketResponder: Received block blk_-1566629900358427030 of size 67108864 from /10.251.110.196
11366	081109 203716 190 INFO dfs.DataNode$PacketResponder: Received block blk_-8495497618534328697 of size 67108864 from /10.251.66.3
11367	081109 203716 191 INFO dfs.DataNode$PacketResponder: PacketResponder 2 for block blk_-2217337663495438507 terminating
11368	081109 203716 191 INFO dfs.DataNode$PacketResponder: PacketResponder 2 for block blk_-8370948403322920698 terminating
11369	081109 203716 191 INFO dfs.DataNode$PacketResponder: Received block blk_-2217337663495438507 of size 67108864 from /10.251.199.159
11370	081109 203716 191 INFO dfs.DataNode$PacketResponder: Received block blk_-8370948403322920698 of size 67108864 from /10.251.30.6
11371	081109 203716 192 INFO dfs.DataNode$PacketResponder: PacketResponder 0 for block blk_-2217337663495438507 terminating
11372	081109 203716 192 INFO dfs.DataNode$PacketResponder: PacketResponder 0 for block blk_-4756691189199606845 terminating
11373	081109 203716 192 INFO dfs.DataNode$PacketResponder: PacketResponder 1 for block blk_-2217337663495438507 terminating
11374	081109 203716 192 INFO dfs.DataNode$PacketResponder: Received block blk_-2217337663495438507 of size 67108864 from /10.251.199.159
11375	081109 203716 192 INFO dfs.DataNode$PacketResponder: Received block blk_-2217337663495438507 of size 67108864 from /10.251.39.192
11376	081109 203716 192 INFO dfs.DataNode$PacketResponder: Received block blk_-4756691189199606845 of size 67108864 from /10.251.73.188
11377	081109 203716 193 INFO dfs.DataNode$PacketResponder: PacketResponder 1 for block blk_7214885953979232621 terminating
11378	081109 203716 193 INFO dfs.DataNode$PacketResponder: PacketResponder 2 for block blk_-1566629900358427030 terminating
11379	081109 203716 193 INFO dfs.DataNode$PacketResponder: Received block blk_-1566629900358427030 of size 67108864 from /10.251.75.79
11380	081109 203716 193 INFO dfs.DataNode$PacketResponder: Received block blk_7214885953979232621 of size 67108864 from /10.251.31.242
11381	081109 203716 195 INFO dfs.DataNode$PacketResponder: PacketResponder 2 for block blk_-4756691189199606845 terminating
11382	081109 203716 195 INFO dfs.DataNode$PacketResponder: Received block blk_-4756691189199606845 of size 67108864 from /10.251.198.33
11383	081109 203716 196 INFO dfs.DataNode$PacketResponder: PacketResponder 1 for block blk_-4544790754104531975 terminating
11384	081109 203716 196 INFO dfs.DataNode$PacketResponder: Received block blk_-4544790754104531975 of size 67108864 from /10.251.66.3
11385	081109 203716 197 INFO dfs.DataNode$PacketResponder: PacketResponder 0 for block blk_1261362019224683494 terminating
11386	081109 203716 197 INFO dfs.DataNode$PacketResponder: PacketResponder 0 for block blk_-8936272065619965543 terminating
11387	081109 203716 197 INFO dfs.DataNode$PacketResponder: PacketResponder 1 for block blk_-8936272065619965543 terminating
11388	081109 203716 197 INFO dfs.DataNode$PacketResponder: PacketResponder 2 for block blk_3563903330975658136 terminating
11389	081109 203716 197 INFO dfs.DataNode$PacketResponder: Received block blk_1261362019224683494 of size 67108864 from /10.250.11.85
11390	081109 203716 197 INFO dfs.DataNode$PacketResponder: Received block blk_3563903330975658136 of size 67108864 from /10.250.6.214
11391	081109 203716 197 INFO dfs.DataNode$PacketResponder: Received block blk_-8936272065619965543 of size 67108864 from /10.251.111.37
11392	081109 203716 197 INFO dfs.DataNode$PacketResponder: Received block blk_-8936272065619965543 of size 67108864 from /10.251.125.174
11393	081109 203716 199 INFO dfs.DataNode$PacketResponder: PacketResponder 0 for block blk_3563903330975658136 terminating
11394	081109 203716 199 INFO dfs.DataNode$PacketResponder: PacketResponder 0 for block blk_7963903429672169952 terminating
11395	081109 203716 199 INFO dfs.DataNode$PacketResponder: PacketResponder 1 for block blk_-4756691189199606845 terminating
11396	081109 203716 199 INFO dfs.DataNode$PacketResponder: PacketResponder 1 for block blk_-8370948403322920698 terminating
11397	081109 203716 199 INFO dfs.DataNode$PacketResponder: Received block blk_3563903330975658136 of size 67108864 from /10.251.199.225
11398	081109 203716 199 INFO dfs.DataNode$PacketResponder: Received block blk_-4756691189199606845 of size 67108864 from /10.251.198.33
11399	081109 203716 199 INFO dfs.DataNode$PacketResponder: Received block blk_7963903429672169952 of size 67108864 from /10.251.30.6
11400	081109 203716 199 INFO dfs.DataNode$PacketResponder: Received block blk_-8370948403322920698 of size 67108864 from /10.251.30.6
11401	081109 203716 200 INFO dfs.DataNode$PacketResponder: PacketResponder 0 for block blk_-3043861027862076957 terminating
11402	081109 203716 200 INFO dfs.DataNode$PacketResponder: PacketResponder 1 for block blk_7963903429672169952 terminating
11403	081109 203716 200 INFO dfs.DataNode$PacketResponder: PacketResponder 2 for block blk_-3043861027862076957 terminating
11404	081109 203716 200 INFO dfs.DataNode$PacketResponder: Received block blk_-3043861027862076957 of size 67108864 from /10.251.111.228
11405	081109 203716 200 INFO dfs.DataNode$PacketResponder: Received block blk_-3043861027862076957 of size 67108864 from /10.251.125.174
11406	081109 203716 200 INFO dfs.DataNode$PacketResponder: Received block blk_7963903429672169952 of size 67108864 from /10.251.71.68
11407	081109 203716 201 INFO dfs.DataNode$PacketResponder: PacketResponder 0 for block blk_7214885953979232621 terminating
11408	081109 203716 201 INFO dfs.DataNode$PacketResponder: PacketResponder 1 for block blk_-1566629900358427030 terminating
11409	081109 203716 201 INFO dfs.DataNode$PacketResponder: PacketResponder 2 for block blk_7963903429672169952 terminating
11410	081109 203716 201 INFO dfs.DataNode$PacketResponder: Received block blk_-1566629900358427030 of size 67108864 from /10.251.75.79
11411	081109 203716 201 INFO dfs.DataNode$PacketResponder: Received block blk_7214885953979232621 of size 67108864 from /10.251.127.191
11412	081109 203716 201 INFO dfs.DataNode$PacketResponder: Received block blk_7963903429672169952 of size 67108864 from /10.251.71.68
11413	081109 203716 209 INFO dfs.DataNode$DataXceiver: Receiving block blk_-6124450708379864613 src: /10.251.42.84:33141 dest: /10.251.42.84:50010
11414	081109 203716 209 INFO dfs.DataNode$PacketResponder: PacketResponder 1 for block blk_3563903330975658136 terminating
11415	081109 203716 209 INFO dfs.DataNode$PacketResponder: Received block blk_3563903330975658136 of size 67108864 from /10.250.6.214
11416	081109 203716 211 INFO dfs.DataNode$DataXceiver: Receiving block blk_2428203400044134850 src: /10.250.6.214:39083 dest: /10.250.6.214:50010
11417	081109 203716 211 INFO dfs.DataNode$DataXceiver: Receiving block blk_8843850507001373378 src: /10.251.66.3:57234 dest: /10.251.66.3:50010
11418	081109 203716 211 INFO dfs.DataNode$DataXceiver: Receiving block blk_8892946833207246710 src: /10.251.199.159:43018 dest: /10.251.199.159:50010
11419	081109 203716 212 INFO dfs.DataNode$DataXceiver: Receiving block blk_-6124450708379864613 src: /10.251.42.84:50773 dest: /10.251.42.84:50010
11420	081109 203716 212 INFO dfs.DataNode$DataXceiver: Receiving block blk_-6749547417402991428 src: /10.251.71.193:40453 dest: /10.251.71.193:50010
11421	081109 203716 213 INFO dfs.DataNode$DataXceiver: Receiving block blk_2574157846622519279 src: /10.251.30.6:51097 dest: /10.251.30.6:50010
11422	081109 203716 214 INFO dfs.DataNode$DataXceiver: Receiving block blk_-2511678286431987962 src: /10.251.194.129:51098 dest: /10.251.194.129:50010
11423	081109 203716 214 INFO dfs.DataNode$DataXceiver: Receiving block blk_-6127962985416837806 src: /10.251.75.79:49025 dest: /10.251.75.79:50010
11424	081109 203716 214 INFO dfs.DataNode$DataXceiver: Receiving block blk_-784142585798609041 src: /10.251.214.18:55475 dest: /10.251.214.18:50010
11425	081109 203716 215 INFO dfs.DataNode$DataXceiver: Receiving block blk_1113822473565022381 src: /10.251.37.240:40016 dest: /10.251.37.240:50010
11426	081109 203716 215 INFO dfs.DataNode$DataXceiver: Receiving block blk_512363147112021223 src: /10.251.71.68:59101 dest: /10.251.71.68:50010
11427	081109 203716 216 INFO dfs.DataNode$DataXceiver: Receiving block blk_2574157846622519279 src: /10.251.30.6:54363 dest: /10.251.30.6:50010
11428	081109 203716 216 INFO dfs.DataNode$DataXceiver: Receiving block blk_4240421695022555427 src: /10.251.71.240:36338 dest: /10.251.71.240:50010
11429	081109 203716 217 INFO dfs.DataNode$DataXceiver: Receiving block blk_-6124450708379864613 src: /10.251.123.195:35180 dest: /10.251.123.195:50010
11430	081109 203716 218 INFO dfs.DataNode$DataXceiver: Receiving block blk_-3432811463524025167 src: /10.251.74.192:34696 dest: /10.251.74.192:50010
11431	081109 203716 218 INFO dfs.DataNode$DataXceiver: Receiving block blk_-5557105176152778802 src: /10.251.199.159:47768 dest: /10.251.199.159:50010
11432	081109 203716 218 INFO dfs.DataNode$DataXceiver: Receiving block blk_8538418382611596591 src: /10.250.17.225:41288 dest: /10.250.17.225:50010
11433	081109 203716 219 INFO dfs.DataNode$DataXceiver: Receiving block blk_-2382389751032389929 src: /10.251.203.4:52291 dest: /10.251.203.4:50010
11434	081109 203716 219 INFO dfs.DataNode$DataXceiver: Receiving block blk_-5557105176152778802 src: /10.251.199.159:47681 dest: /10.251.199.159:50010
11435	081109 203716 219 INFO dfs.DataNode$DataXceiver: Receiving block blk_-7726798057831307366 src: /10.251.31.242:42791 dest: /10.251.31.242:50010
11436	081109 203716 220 INFO dfs.DataNode$DataXceiver: Receiving block blk_512363147112021223 src: /10.251.71.68:47799 dest: /10.251.71.68:50010
11437	081109 203716 220 INFO dfs.DataNode$DataXceiver: Receiving block blk_-6588618799865695917 src: /10.251.107.50:42250 dest: /10.251.107.50:50010
11438	081109 203716 220 INFO dfs.DataNode$DataXceiver: Receiving block blk_-8989637111546486768 src: /10.251.109.236:47479 dest: /10.251.109.236:50010
11439	081109 203716 224 INFO dfs.DataNode$DataXceiver: Receiving block blk_2647548753132275134 src: /10.250.11.100:37586 dest: /10.250.11.100:50010
11440	081109 203716 225 INFO dfs.DataNode$DataXceiver: Receiving block blk_-784142585798609041 src: /10.251.37.240:34137 dest: /10.251.37.240:50010
11441	081109 203716 225 INFO dfs.DataNode$DataXceiver: Receiving block blk_-8989637111546486768 src: /10.251.109.236:41509 dest: /10.251.109.236:50010
11442	081109 203716 227 INFO dfs.DataNode$DataXceiver: Receiving block blk_-784142585798609041 src: /10.251.214.18:35564 dest: /10.251.214.18:50010
11443	081109 203716 232 INFO dfs.DataNode$DataXceiver: Receiving block blk_4240421695022555427 src: /10.251.106.214:49487 dest: /10.251.106.214:50010
11444	081109 203716 233 INFO dfs.DataNode$DataXceiver: Receiving block blk_-7129938157641579552 src: /10.251.111.228:56352 dest: /10.251.111.228:50010
11445	081109 203716 26 INFO dfs.FSNamesystem: BLOCK* NameSystem.addStoredBlock: blockMap updated: 10.251.199.159:50010 is added to blk_-2217337663495438507 size 67108864
11446	081109 203716 26 INFO dfs.FSNamesystem: BLOCK* NameSystem.addStoredBlock: blockMap updated: 10.251.39.192:50010 is added to blk_-8370948403322920698 size 67108864
11447	081109 203716 26 INFO dfs.FSNamesystem: BLOCK* NameSystem.allocateBlock: /user/root/rand/_temporary/_task_200811092030_0001_m_000038_0/part-00038. blk_8843850507001373378
11448	081109 203716 26 INFO dfs.FSNamesystem: BLOCK* NameSystem.allocateBlock: /user/root/rand/_temporary/_task_200811092030_0001_m_000043_0/part-00043. blk_-6124450708379864613
11449	081109 203716 27 INFO dfs.FSNamesystem: BLOCK* NameSystem.addStoredBlock: blockMap updated: 10.250.19.16:50010 is added to blk_7214885953979232621 size 67108864
11450	081109 203716 27 INFO dfs.FSNamesystem: BLOCK* NameSystem.addStoredBlock: blockMap updated: 10.251.198.33:50010 is added to blk_-4756691189199606845 size 67108864
11451	081109 203716 27 INFO dfs.FSNamesystem: BLOCK* NameSystem.addStoredBlock: blockMap updated: 10.251.199.86:50010 is added to blk_-3043861027862076957 size 67108864
11452	081109 203716 27 INFO dfs.FSNamesystem: BLOCK* NameSystem.allocateBlock: /user/root/rand/_temporary/_task_200811092030_0001_m_000106_0/part-00106. blk_-7129938157641579552
11453	081109 203716 28 INFO dfs.FSNamesystem: BLOCK* NameSystem.addStoredBlock: blockMap updated: 10.251.125.174:50010 is added to blk_-3043861027862076957 size 67108864
11454	081109 203716 28 INFO dfs.FSNamesystem: BLOCK* NameSystem.addStoredBlock: blockMap updated: 10.251.203.4:50010 is added to blk_7299155215022858120 size 67108864
11455	081109 203716 28 INFO dfs.FSNamesystem: BLOCK* NameSystem.addStoredBlock: blockMap updated: 10.251.214.18:50010 is added to blk_7320609065074060400 size 67108864
11456	081109 203716 28 INFO dfs.FSNamesystem: BLOCK* NameSystem.allocateBlock: /user/root/rand/_temporary/_task_200811092030_0001_m_000126_0/part-00126. blk_2574157846622519279
11457	081109 203716 28 INFO dfs.FSNamesystem: BLOCK* NameSystem.allocateBlock: /user/root/rand/_temporary/_task_200811092030_0001_m_000402_0/part-00402. blk_2428203400044134850
11458	081109 203716 29 INFO dfs.FSNamesystem: BLOCK* NameSystem.addStoredBlock: blockMap updated: 10.251.109.236:50010 is added to blk_-7678475058431153610 size 67108864
11459	081109 203716 29 INFO dfs.FSNamesystem: BLOCK* NameSystem.addStoredBlock: blockMap updated: 10.251.122.65:50010 is added to blk_-2217337663495438507 size 67108864
11460	081109 203716 29 INFO dfs.FSNamesystem: BLOCK* NameSystem.addStoredBlock: blockMap updated: 10.251.125.174:50010 is added to blk_-8936272065619965543 size 67108864
11461	081109 203716 29 INFO dfs.FSNamesystem: BLOCK* NameSystem.addStoredBlock: blockMap updated: 10.251.125.193:50010 is added to blk_7963903429672169952 size 67108864
11462	081109 203716 29 INFO dfs.FSNamesystem: BLOCK* NameSystem.addStoredBlock: blockMap updated: 10.251.214.67:50010 is added to blk_-8495497618534328697 size 67108864
11463	081109 203716 29 INFO dfs.FSNamesystem: BLOCK* NameSystem.addStoredBlock: blockMap updated: 10.251.71.68:50010 is added to blk_-4756691189199606845 size 67108864
11464	081109 203716 29 INFO dfs.FSNamesystem: BLOCK* NameSystem.addStoredBlock: blockMap updated: 10.251.75.79:50010 is added to blk_-1566629900358427030 size 67108864
11465	081109 203716 29 INFO dfs.FSNamesystem: BLOCK* NameSystem.allocateBlock: /user/root/rand/_temporary/_task_200811092030_0001_m_000155_0/part-00155. blk_512363147112021223
11466	081109 203716 30 INFO dfs.FSNamesystem: BLOCK* NameSystem.addStoredBlock: blockMap updated: 10.250.6.191:50010 is added to blk_3563903330975658136 size 67108864
11467	081109 203716 30 INFO dfs.FSNamesystem: BLOCK* NameSystem.addStoredBlock: blockMap updated: 10.251.199.225:50010 is added to blk_3563903330975658136 size 67108864
11468	081109 203716 30 INFO dfs.FSNamesystem: BLOCK* NameSystem.addStoredBlock: blockMap updated: 10.251.71.16:50010 is added to blk_-8495497618534328697 size 67108864
11469	081109 203716 30 INFO dfs.FSNamesystem: BLOCK* NameSystem.addStoredBlock: blockMap updated: 10.251.71.68:50010 is added to blk_7963903429672169952 size 67108864
11470	081109 203716 30 INFO dfs.FSNamesystem: BLOCK* NameSystem.addStoredBlock: blockMap updated: 10.251.73.188:50010 is added to blk_-4756691189199606845 size 67108864
11471	081109 203716 30 INFO dfs.FSNamesystem: BLOCK* NameSystem.allocateBlock: /user/root/rand/_temporary/_task_200811092030_0001_m_000314_0/part-00314. blk_-6127962985416837806
11472	081109 203716 31 INFO dfs.FSNamesystem: BLOCK* NameSystem.addStoredBlock: blockMap updated: 10.250.5.237:50010 is added to blk_7299155215022858120 size 67108864
11473	081109 203716 31 INFO dfs.FSNamesystem: BLOCK* NameSystem.addStoredBlock: blockMap updated: 10.251.127.191:50010 is added to blk_7214885953979232621 size 67108864
11474	081109 203716 31 INFO dfs.FSNamesystem: BLOCK* NameSystem.allocateBlock: /user/root/rand/_temporary/_task_200811092030_0001_m_000301_0/part-00301. blk_-2382389751032389929
11475	081109 203716 32 INFO dfs.FSNamesystem: BLOCK* NameSystem.addStoredBlock: blockMap updated: 10.250.6.214:50010 is added to blk_3563903330975658136 size 67108864
11476	081109 203716 32 INFO dfs.FSNamesystem: BLOCK* NameSystem.addStoredBlock: blockMap updated: 10.251.31.242:50010 is added to blk_7214885953979232621 size 67108864
11477	081109 203716 32 INFO dfs.FSNamesystem: BLOCK* NameSystem.addStoredBlock: blockMap updated: 10.251.39.192:50010 is added to blk_-2217337663495438507 size 67108864
11478	081109 203716 32 INFO dfs.FSNamesystem: BLOCK* NameSystem.addStoredBlock: blockMap updated: 10.251.43.147:50010 is added to blk_-8936272065619965543 size 67108864
11479	081109 203716 32 INFO dfs.FSNamesystem: BLOCK* NameSystem.addStoredBlock: blockMap updated: 10.251.66.3:50010 is added to blk_-8495497618534328697 size 67108864
11480	081109 203716 33 INFO dfs.FSNamesystem: BLOCK* NameSystem.addStoredBlock: blockMap updated: 10.250.17.225:50010 is added to blk_1261362019224683494 size 67108864
11481	081109 203716 33 INFO dfs.FSNamesystem: BLOCK* NameSystem.addStoredBlock: blockMap updated: 10.251.110.196:50010 is added to blk_-1566629900358427030 size 67108864
11482	081109 203716 33 INFO dfs.FSNamesystem: BLOCK* NameSystem.addStoredBlock: blockMap updated: 10.251.30.6:50010 is added to blk_7963903429672169952 size 67108864
11483	081109 203716 34 INFO dfs.FSNamesystem: BLOCK* NameSystem.addStoredBlock: blockMap updated: 10.251.203.129:50010 is added to blk_7299155215022858120 size 67108864
11484	081109 203716 34 INFO dfs.FSNamesystem: BLOCK* NameSystem.addStoredBlock: blockMap updated: 10.251.203.4:50010 is added to blk_5307863097968695533 size 67108864
11485	081109 203716 34 INFO dfs.FSNamesystem: BLOCK* NameSystem.addStoredBlock: blockMap updated: 10.251.30.6:50010 is added to blk_-8370948403322920698 size 67108864
11486	081109 203716 34 INFO dfs.FSNamesystem: BLOCK* NameSystem.addStoredBlock: blockMap updated: 10.251.70.5:50010 is added to blk_-1566629900358427030 size 67108864
11487	081109 203716 34 INFO dfs.FSNamesystem: BLOCK* NameSystem.allocateBlock: /user/root/rand/_temporary/_task_200811092030_0001_m_000385_0/part-00385. blk_-5557105176152778802
11488	081109 203716 35 INFO dfs.FSNamesystem: BLOCK* NameSystem.addStoredBlock: blockMap updated: 10.251.42.84:50010 is added to blk_7918827947769550930 size 67108864
11489	081109 203716 35 INFO dfs.FSNamesystem: BLOCK* NameSystem.allocateBlock: /user/root/rand/_temporary/_task_200811092030_0001_m_000030_0/part-00030. blk_-7726798057831307366
11490	081109 203716 35 INFO dfs.FSNamesystem: BLOCK* NameSystem.allocateBlock: /user/root/rand/_temporary/_task_200811092030_0001_m_000065_0/part-00065. blk_-784142585798609041
11491	081109 203716 35 INFO dfs.FSNamesystem: BLOCK* NameSystem.allocateBlock: /user/root/rand/_temporary/_task_200811092030_0001_m_000164_0/part-00164. blk_-8989637111546486768
11492	081109 203717 176 INFO dfs.DataNode$PacketResponder: PacketResponder 2 for block blk_5307863097968695533 terminating
11493	081109 203717 176 INFO dfs.DataNode$PacketResponder: Received block blk_5307863097968695533 of size 67108864 from /10.250.10.213
11494	081109 203717 183 INFO dfs.DataNode$PacketResponder: PacketResponder 1 for block blk_-7333092054746368887 terminating
11495	081109 203717 183 INFO dfs.DataNode$PacketResponder: Received block blk_-7333092054746368887 of size 67108864 from /10.251.91.159
11496	081109 203717 185 INFO dfs.DataNode$PacketResponder: PacketResponder 0 for block blk_27168498893201242 terminating
11497	081109 203717 185 INFO dfs.DataNode$PacketResponder: PacketResponder 1 for block blk_-7509001624708352080 terminating
11498	081109 203717 185 INFO dfs.DataNode$PacketResponder: Received block blk_27168498893201242 of size 67108864 from /10.251.194.245
11499	081109 203717 185 INFO dfs.DataNode$PacketResponder: Received block blk_-7509001624708352080 of size 67108864 from /10.251.122.65
11500	081109 203717 186 INFO dfs.DataNode$PacketResponder: PacketResponder 0 for block blk_3932164532372485447 terminating
11501	081109 203717 186 INFO dfs.DataNode$PacketResponder: PacketResponder 2 for block blk_-4961369352737833646 terminating
11502	081109 203717 186 INFO dfs.DataNode$PacketResponder: Received block blk_3932164532372485447 of size 67108864 from /10.251.73.188
11503	081109 203717 186 INFO dfs.DataNode$PacketResponder: Received block blk_-4961369352737833646 of size 67108864 from /10.251.66.63
11504	081109 203717 187 INFO dfs.DataNode$PacketResponder: PacketResponder 0 for block blk_-4458222463551289898 terminating
11505	081109 203717 187 INFO dfs.DataNode$PacketResponder: PacketResponder 2 for block blk_-4458222463551289898 terminating
11506	081109 203717 187 INFO dfs.DataNode$PacketResponder: Received block blk_-4458222463551289898 of size 67108864 from /10.250.10.100
11507	081109 203717 187 INFO dfs.DataNode$PacketResponder: Received block blk_-4458222463551289898 of size 67108864 from /10.251.199.150
11508	081109 203717 188 INFO dfs.DataNode$PacketResponder: PacketResponder 2 for block blk_3762366616652794081 terminating
11509	081109 203717 188 INFO dfs.DataNode$PacketResponder: PacketResponder 2 for block blk_-7800707847661743046 terminating
11510	081109 203717 188 INFO dfs.DataNode$PacketResponder: Received block blk_3762366616652794081 of size 67108864 from /10.250.13.188
11511	081109 203717 188 INFO dfs.DataNode$PacketResponder: Received block blk_-7800707847661743046 of size 67108864 from /10.251.70.37
11512	081109 203717 189 INFO dfs.DataNode$PacketResponder: PacketResponder 1 for block blk_27168498893201242 terminating
11513	081109 203717 189 INFO dfs.DataNode$PacketResponder: Received block blk_27168498893201242 of size 67108864 from /10.250.7.146
11514	081109 203717 190 INFO dfs.DataNode$PacketResponder: PacketResponder 0 for block blk_-4961369352737833646 terminating
11515	081109 203717 190 INFO dfs.DataNode$PacketResponder: PacketResponder 0 for block blk_-7333092054746368887 terminating
11516	081109 203717 190 INFO dfs.DataNode$PacketResponder: PacketResponder 0 for block blk_-7800707847661743046 terminating
11517	081109 203717 190 INFO dfs.DataNode$PacketResponder: PacketResponder 2 for block blk_27168498893201242 terminating
11518	081109 203717 190 INFO dfs.DataNode$PacketResponder: Received block blk_27168498893201242 of size 67108864 from /10.250.7.146
11519	081109 203717 190 INFO dfs.DataNode$PacketResponder: Received block blk_-4961369352737833646 of size 67108864 from /10.251.110.160
11520	081109 203717 190 INFO dfs.DataNode$PacketResponder: Received block blk_-7333092054746368887 of size 67108864 from /10.250.7.32
11521	081109 203717 190 INFO dfs.DataNode$PacketResponder: Received block blk_-7800707847661743046 of size 67108864 from /10.251.214.175
11522	081109 203717 192 INFO dfs.DataNode$PacketResponder: PacketResponder 0 for block blk_3762366616652794081 terminating
11523	081109 203717 192 INFO dfs.DataNode$PacketResponder: PacketResponder 0 for block blk_-7509001624708352080 terminating
11524	081109 203717 192 INFO dfs.DataNode$PacketResponder: Received block blk_3762366616652794081 of size 67108864 from /10.251.199.86
11525	081109 203717 192 INFO dfs.DataNode$PacketResponder: Received block blk_-7509001624708352080 of size 67108864 from /10.251.215.192
11526	081109 203717 193 INFO dfs.DataNode$PacketResponder: PacketResponder 1 for block blk_-4458222463551289898 terminating
11527	081109 203717 193 INFO dfs.DataNode$PacketResponder: Received block blk_-4458222463551289898 of size 67108864 from /10.250.10.100
11528	081109 203717 194 INFO dfs.DataNode$PacketResponder: PacketResponder 0 for block blk_-2297107294057360292 terminating
11529	081109 203717 194 INFO dfs.DataNode$PacketResponder: PacketResponder 2 for block blk_1261362019224683494 terminating
11530	081109 203717 194 INFO dfs.DataNode$PacketResponder: PacketResponder 2 for block blk_-4690715941677619474 terminating
11531	081109 203717 194 INFO dfs.DataNode$PacketResponder: Received block blk_1261362019224683494 of size 67108864 from /10.251.42.9
11532	081109 203717 194 INFO dfs.DataNode$PacketResponder: Received block blk_-2297107294057360292 of size 67108864 from /10.251.214.112
11533	081109 203717 194 INFO dfs.DataNode$PacketResponder: Received block blk_-4690715941677619474 of size 67108864 from /10.251.43.192
11534	081109 203717 195 INFO dfs.DataNode$PacketResponder: PacketResponder 0 for block blk_-4690715941677619474 terminating
11535	081109 203717 195 INFO dfs.DataNode$PacketResponder: PacketResponder 1 for block blk_3762366616652794081 terminating
11536	081109 203717 195 INFO dfs.DataNode$PacketResponder: PacketResponder 1 for block blk_-4690715941677619474 terminating
11537	081109 203717 195 INFO dfs.DataNode$PacketResponder: PacketResponder 1 for block blk_-4961369352737833646 terminating
11538	081109 203717 195 INFO dfs.DataNode$PacketResponder: PacketResponder 2 for block blk_-8936272065619965543 terminating
11539	081109 203717 195 INFO dfs.DataNode$PacketResponder: Received block blk_3762366616652794081 of size 67108864 from /10.250.13.188
11540	081109 203717 195 INFO dfs.DataNode$PacketResponder: Received block blk_-4690715941677619474 of size 67108864 from /10.251.194.102
11541	081109 203717 195 INFO dfs.DataNode$PacketResponder: Received block blk_-4690715941677619474 of size 67108864 from /10.251.43.192
11542	081109 203717 195 INFO dfs.DataNode$PacketResponder: Received block blk_-4961369352737833646 of size 67108864 from /10.251.66.63
11543	081109 203717 195 INFO dfs.DataNode$PacketResponder: Received block blk_-8936272065619965543 of size 67108864 from /10.251.111.37
11544	081109 203717 196 INFO dfs.DataNode$PacketResponder: PacketResponder 1 for block blk_-2297107294057360292 terminating
11545	081109 203717 196 INFO dfs.DataNode$PacketResponder: PacketResponder 2 for block blk_-1716421030715354338 terminating
11546	081109 203717 196 INFO dfs.DataNode$PacketResponder: Received block blk_-1716421030715354338 of size 67108864 from /10.250.18.114
11547	081109 203717 196 INFO dfs.DataNode$PacketResponder: Received block blk_-2297107294057360292 of size 67108864 from /10.251.214.32
11548	081109 203717 197 INFO dfs.DataNode$PacketResponder: PacketResponder 1 for block blk_6756191001627401745 terminating
11549	081109 203717 197 INFO dfs.DataNode$PacketResponder: Received block blk_6756191001627401745 of size 67108864 from /10.250.10.176
11550	081109 203717 198 INFO dfs.DataNode$PacketResponder: PacketResponder 2 for block blk_-4544790754104531975 terminating
11551	081109 203717 198 INFO dfs.DataNode$PacketResponder: Received block blk_-4544790754104531975 of size 67108864 from /10.251.66.3
11552	081109 203717 199 INFO dfs.DataNode$PacketResponder: PacketResponder 0 for block blk_6756191001627401745 terminating
11553	081109 203717 199 INFO dfs.DataNode$PacketResponder: PacketResponder 1 for block blk_-1716421030715354338 terminating
11554	081109 203717 199 INFO dfs.DataNode$PacketResponder: PacketResponder 1 for block blk_-7800707847661743046 terminating
11555	081109 203717 199 INFO dfs.DataNode$PacketResponder: Received block blk_-1716421030715354338 of size 67108864 from /10.250.18.114
11556	081109 203717 199 INFO dfs.DataNode$PacketResponder: Received block blk_6756191001627401745 of size 67108864 from /10.251.126.255
11557	081109 203717 199 INFO dfs.DataNode$PacketResponder: Received block blk_-7800707847661743046 of size 67108864 from /10.251.70.37
11558	081109 203717 200 INFO dfs.DataNode$PacketResponder: PacketResponder 0 for block blk_-1716421030715354338 terminating
11559	081109 203717 200 INFO dfs.DataNode$PacketResponder: PacketResponder 0 for block blk_6207205291466497895 terminating
11560	081109 203717 200 INFO dfs.DataNode$PacketResponder: PacketResponder 2 for block blk_-2297107294057360292 terminating
11561	081109 203717 200 INFO dfs.DataNode$PacketResponder: Received block blk_-1716421030715354338 of size 67108864 from /10.251.38.214
11562	081109 203717 200 INFO dfs.DataNode$PacketResponder: Received block blk_-2297107294057360292 of size 67108864 from /10.251.214.32
11563	081109 203717 200 INFO dfs.DataNode$PacketResponder: Received block blk_6207205291466497895 of size 67108864 from /10.250.19.16
11564	081109 203717 202 INFO dfs.DataNode$PacketResponder: PacketResponder 0 for block blk_-4544790754104531975 terminating
11565	081109 203717 202 INFO dfs.DataNode$PacketResponder: Received block blk_-4544790754104531975 of size 67108864 from /10.251.203.149
11566	081109 203717 204 INFO dfs.DataNode$PacketResponder: PacketResponder 2 for block blk_6207205291466497895 terminating
11567	081109 203717 204 INFO dfs.DataNode$PacketResponder: Received block blk_6207205291466497895 of size 67108864 from /10.251.199.19
11568	081109 203717 207 INFO dfs.DataNode$DataXceiver: Receiving block blk_75213687481863239 src: /10.251.111.37:52162 dest: /10.251.111.37:50010
11569	081109 203717 209 INFO dfs.DataNode$DataXceiver: Receiving block blk_-2382389751032389929 src: /10.251.203.4:35560 dest: /10.251.203.4:50010
11570	081109 203717 210 INFO dfs.DataNode$DataXceiver: Receiving block blk_5360535177585557321 src: /10.250.18.114:34059 dest: /10.250.18.114:50010
11571	081109 203717 210 INFO dfs.DataNode$DataXceiver: Receiving block blk_5696371105071535054 src: /10.251.43.192:38191 dest: /10.251.43.192:50010
11572	081109 203717 210 INFO dfs.DataNode$DataXceiver: Receiving block blk_-6127962985416837806 src: /10.251.75.79:60740 dest: /10.251.75.79:50010
11573	081109 203717 212 INFO dfs.DataNode$DataXceiver: Receiving block blk_-4940431983319536262 src: /10.251.66.3:39950 dest: /10.251.66.3:50010
11574	081109 203717 212 INFO dfs.DataNode$DataXceiver: Receiving block blk_-4940431983319536262 src: /10.251.66.3:57236 dest: /10.251.66.3:50010
11575	081109 203717 212 INFO dfs.DataNode$DataXceiver: Receiving block blk_-6520030462660619051 src: /10.251.214.32:52677 dest: /10.251.214.32:50010
11576	081109 203717 212 INFO dfs.DataNode$PacketResponder: PacketResponder 1 for block blk_6207205291466497895 terminating
11577	081109 203717 212 INFO dfs.DataNode$PacketResponder: Received block blk_6207205291466497895 of size 67108864 from /10.251.199.19
11578	081109 203717 213 INFO dfs.DataNode$DataXceiver: Receiving block blk_2574157846622519279 src: /10.251.43.210:50159 dest: /10.251.43.210:50010
11579	081109 203717 213 INFO dfs.DataNode$DataXceiver: Receiving block blk_-6127962985416837806 src: /10.250.7.244:53023 dest: /10.250.7.244:50010
11580	081109 203717 213 INFO dfs.DataNode$DataXceiver: Receiving block blk_75213687481863239 src: /10.251.111.37:57201 dest: /10.251.111.37:50010
11581	081109 203717 214 INFO dfs.DataNode$DataXceiver: Receiving block blk_-1949968870137262354 src: /10.251.199.19:56753 dest: /10.251.199.19:50010
11582	081109 203717 214 INFO dfs.DataNode$DataXceiver: Receiving block blk_7865818174831484581 src: /10.251.195.70:47817 dest: /10.251.195.70:50010
11583	081109 203717 215 INFO dfs.DataNode$DataXceiver: Receiving block blk_2544340128461285107 src: /10.250.10.100:54640 dest: /10.250.10.100:50010
11584	081109 203717 215 INFO dfs.DataNode$DataXceiver: Receiving block blk_75213687481863239 src: /10.251.43.115:36865 dest: /10.251.43.115:50010
11585	081109 203717 215 INFO dfs.DataNode$DataXceiver: Receiving block blk_7865818174831484581 src: /10.251.123.20:38840 dest: /10.251.123.20:50010
11586	081109 203717 216 INFO dfs.DataNode$DataXceiver: Receiving block blk_266050041847888654 src: /10.250.10.213:58288 dest: /10.250.10.213:50010
11587	081109 203717 216 INFO dfs.DataNode$DataXceiver: Receiving block blk_6481102757461949828 src: /10.250.13.188:48514 dest: /10.250.13.188:50010
11588	081109 203717 217 INFO dfs.DataNode$DataXceiver: Receiving block blk_6458675875817635390 src: /10.251.198.33:44099 dest: /10.251.198.33:50010
11589	081109 203717 219 INFO dfs.DataNode$DataXceiver: Receiving block blk_266050041847888654 src: /10.250.10.213:60767 dest: /10.250.10.213:50010
11590	081109 203717 219 INFO dfs.DataNode$DataXceiver: Receiving block blk_-3534948072600775762 src: /10.250.10.6:44151 dest: /10.250.10.6:50010
11591	081109 203717 220 INFO dfs.DataNode$DataXceiver: Receiving block blk_2428203400044134850 src: /10.251.105.189:45079 dest: /10.251.105.189:50010
11592	081109 203717 220 INFO dfs.DataNode$DataXceiver: Receiving block blk_-3432811463524025167 src: /10.251.203.4:36152 dest: /10.251.203.4:50010
11593	081109 203717 221 INFO dfs.DataNode$DataXceiver: Receiving block blk_-5557105176152778802 src: /10.251.75.163:44597 dest: /10.251.75.163:50010
11594	081109 203717 221 INFO dfs.DataNode$DataXceiver: Receiving block blk_-7499677793330381206 src: /10.251.66.63:34461 dest: /10.251.66.63:50010
11595	081109 203717 222 INFO dfs.DataNode$DataXceiver: Receiving block blk_4685864904040870678 src: /10.251.42.9:36660 dest: /10.251.42.9:50010
11596	081109 203717 222 INFO dfs.DataNode$DataXceiver: Receiving block blk_4685864904040870678 src: /10.251.42.9:46411 dest: /10.251.42.9:50010
11597	081109 203717 225 INFO dfs.DataNode$DataXceiver: Receiving block blk_-7499677793330381206 src: /10.251.66.63:36818 dest: /10.251.66.63:50010
11598	081109 203717 226 INFO dfs.DataNode$DataXceiver: Receiving block blk_8843850507001373378 src: /10.250.14.224:33650 dest: /10.250.14.224:50010
11599	081109 203717 227 INFO dfs.DataNode$DataXceiver: Receiving block blk_-6520030462660619051 src: /10.251.214.32:48982 dest: /10.251.214.32:50010
11600	081109 203717 250 INFO dfs.DataNode$DataXceiver: Receiving block blk_8843850507001373378 src: /10.251.66.3:50906 dest: /10.251.66.3:50010
11601	081109 203717 26 INFO dfs.FSNamesystem: BLOCK* NameSystem.addStoredBlock: blockMap updated: 10.250.18.114:50010 is added to blk_-1716421030715354338 size 67108864
11602	081109 203717 26 INFO dfs.FSNamesystem: BLOCK* NameSystem.addStoredBlock: blockMap updated: 10.251.71.16:50010 is added to blk_3762366616652794081 size 67108864
11603	081109 203717 26 INFO dfs.FSNamesystem: BLOCK* NameSystem.allocateBlock: /user/root/rand/_temporary/_task_200811092030_0001_m_000078_0/part-00078. blk_5696371105071535054
11604	081109 203717 26 INFO dfs.FSNamesystem: BLOCK* NameSystem.allocateBlock: /user/root/rand/_temporary/_task_200811092030_0001_m_000141_0/part-00141. blk_4685864904040870678
11605	081109 203717 26 INFO dfs.FSNamesystem: BLOCK* NameSystem.allocateBlock: /user/root/rand/_temporary/_task_200811092030_0001_m_000215_0/part-00215. blk_-1949968870137262354
11606	081109 203717 27 INFO dfs.FSNamesystem: BLOCK* NameSystem.addStoredBlock: blockMap updated: 10.250.10.213:50010 is added to blk_5307863097968695533 size 67108864
11607	081109 203717 27 INFO dfs.FSNamesystem: BLOCK* NameSystem.addStoredBlock: blockMap updated: 10.250.10.223:50010 is added to blk_-7800707847661743046 size 67108864
11608	081109 203717 27 INFO dfs.FSNamesystem: BLOCK* NameSystem.addStoredBlock: blockMap updated: 10.250.5.237:50010 is added to blk_-4544790754104531975 size 67108864
11609	081109 203717 27 INFO dfs.FSNamesystem: BLOCK* NameSystem.addStoredBlock: blockMap updated: 10.251.106.214:50010 is added to blk_-7333092054746368887 size 67108864
11610	081109 203717 27 INFO dfs.FSNamesystem: BLOCK* NameSystem.addStoredBlock: blockMap updated: 10.251.126.22:50010 is added to blk_-4690715941677619474 size 67108864
11611	081109 203717 27 INFO dfs.FSNamesystem: BLOCK* NameSystem.addStoredBlock: blockMap updated: 10.251.198.33:50010 is added to blk_-4961369352737833646 size 67108864
11612	081109 203717 27 INFO dfs.FSNamesystem: BLOCK* NameSystem.addStoredBlock: blockMap updated: 10.251.215.70:50010 is added to blk_-2297107294057360292 size 67108864
11613	081109 203717 28 INFO dfs.FSNamesystem: BLOCK* NameSystem.addStoredBlock: blockMap updated: 10.251.107.242:50010 is added to blk_-4458222463551289898 size 67108864
11614	081109 203717 28 INFO dfs.FSNamesystem: BLOCK* NameSystem.addStoredBlock: blockMap updated: 10.251.107.50:50010 is added to blk_6207205291466497895 size 67108864
11615	081109 203717 28 INFO dfs.FSNamesystem: BLOCK* NameSystem.addStoredBlock: blockMap updated: 10.251.203.149:50010 is added to blk_-4544790754104531975 size 67108864
11616	081109 203717 29 INFO dfs.FSNamesystem: BLOCK* NameSystem.addStoredBlock: blockMap updated: 10.251.194.245:50010 is added to blk_27168498893201242 size 67108864
11617	081109 203717 29 INFO dfs.FSNamesystem: BLOCK* NameSystem.addStoredBlock: blockMap updated: 10.251.214.175:50010 is added to blk_-7800707847661743046 size 67108864
11618	081109 203717 29 INFO dfs.FSNamesystem: BLOCK* NameSystem.allocateBlock: /user/root/rand/_temporary/_task_200811092030_0001_m_000206_0/part-00206. blk_266050041847888654
11619	081109 203717 30 INFO dfs.FSNamesystem: BLOCK* NameSystem.addStoredBlock: blockMap updated: 10.251.110.160:50010 is added to blk_-4961369352737833646 size 67108864
11620	081109 203717 30 INFO dfs.FSNamesystem: BLOCK* NameSystem.addStoredBlock: blockMap updated: 10.251.111.228:50010 is added to blk_-3043861027862076957 size 67108864
11621	081109 203717 30 INFO dfs.FSNamesystem: BLOCK* NameSystem.addStoredBlock: blockMap updated: 10.251.111.37:50010 is added to blk_-8936272065619965543 size 67108864
11622	081109 203717 30 INFO dfs.FSNamesystem: BLOCK* NameSystem.addStoredBlock: blockMap updated: 10.251.199.19:50010 is added to blk_6207205291466497895 size 67108864
11623	081109 203717 30 INFO dfs.FSNamesystem: BLOCK* NameSystem.addStoredBlock: blockMap updated: 10.251.38.214:50010 is added to blk_-1716421030715354338 size 67108864
11624	081109 203717 30 INFO dfs.FSNamesystem: BLOCK* NameSystem.addStoredBlock: blockMap updated: 10.251.66.63:50010 is added to blk_-4961369352737833646 size 67108864
11625	081109 203717 30 INFO dfs.FSNamesystem: BLOCK* NameSystem.allocateBlock: /user/root/rand/_temporary/_task_200811092030_0001_m_000026_0/part-00026. blk_-7499677793330381206
11626	081109 203717 31 INFO dfs.FSNamesystem: BLOCK* NameSystem.addStoredBlock: blockMap updated: 10.251.91.32:50010 is added to blk_3932164532372485447 size 67108864
11627	081109 203717 31 INFO dfs.FSNamesystem: BLOCK* NameSystem.allocateBlock: /user/root/rand/_temporary/_task_200811092030_0001_m_000081_0/part-00081. blk_5360535177585557321
11628	081109 203717 31 INFO dfs.FSNamesystem: BLOCK* NameSystem.allocateBlock: /user/root/rand/_temporary/_task_200811092030_0001_m_000128_0/part-00128. blk_-4940431983319536262
11629	081109 203717 32 INFO dfs.FSNamesystem: BLOCK* NameSystem.addStoredBlock: blockMap updated: 10.250.10.100:50010 is added to blk_-4458222463551289898 size 67108864
11630	081109 203717 32 INFO dfs.FSNamesystem: BLOCK* NameSystem.addStoredBlock: blockMap updated: 10.250.17.225:50010 is added to blk_-7509001624708352080 size 67108864
11631	081109 203717 32 INFO dfs.FSNamesystem: BLOCK* NameSystem.addStoredBlock: blockMap updated: 10.251.110.8:50010 is added to blk_6756191001627401745 size 67108864
11632	081109 203717 32 INFO dfs.FSNamesystem: BLOCK* NameSystem.addStoredBlock: blockMap updated: 10.251.199.150:50010 is added to blk_-4458222463551289898 size 67108864
11633	081109 203717 32 INFO dfs.FSNamesystem: BLOCK* NameSystem.addStoredBlock: blockMap updated: 10.251.214.112:50010 is added to blk_-2297107294057360292 size 67108864
11634	081109 203717 32 INFO dfs.FSNamesystem: BLOCK* NameSystem.addStoredBlock: blockMap updated: 10.251.214.32:50010 is added to blk_-2297107294057360292 size 67108864
11635	081109 203717 32 INFO dfs.FSNamesystem: BLOCK* NameSystem.addStoredBlock: blockMap updated: 10.251.43.192:50010 is added to blk_-4690715941677619474 size 67108864
11636	081109 203717 33 INFO dfs.FSNamesystem: BLOCK* NameSystem.addStoredBlock: blockMap updated: 10.251.107.98:50010 is added to blk_-1716421030715354338 size 67108864
11637	081109 203717 33 INFO dfs.FSNamesystem: BLOCK* NameSystem.allocateBlock: /user/root/rand/_temporary/_task_200811092030_0001_m_000100_0/part-00100. blk_75213687481863239
11638	081109 203717 34 INFO dfs.FSNamesystem: BLOCK* NameSystem.addStoredBlock: blockMap updated: 10.250.11.85:50010 is added to blk_1261362019224683494 size 67108864
11639	081109 203717 34 INFO dfs.FSNamesystem: BLOCK* NameSystem.addStoredBlock: blockMap updated: 10.250.13.188:50010 is added to blk_3762366616652794081 size 67108864
11640	081109 203717 34 INFO dfs.FSNamesystem: BLOCK* NameSystem.addStoredBlock: blockMap updated: 10.250.19.16:50010 is added to blk_6207205291466497895 size 67108864
11641	081109 203717 34 INFO dfs.FSNamesystem: BLOCK* NameSystem.addStoredBlock: blockMap updated: 10.251.203.246:50010 is added to blk_27168498893201242 size 67108864
11642	081109 203717 34 INFO dfs.FSNamesystem: BLOCK* NameSystem.addStoredBlock: blockMap updated: 10.251.215.192:50010 is added to blk_-7509001624708352080 size 67108864
11643	081109 203717 34 INFO dfs.FSNamesystem: BLOCK* NameSystem.addStoredBlock: blockMap updated: 10.251.42.9:50010 is added to blk_1261362019224683494 size 67108864
11644	081109 203717 34 INFO dfs.FSNamesystem: BLOCK* NameSystem.allocateBlock: /user/root/rand/_temporary/_task_200811092030_0001_m_000299_0/part-00299. blk_-6520030462660619051
11645	081109 203717 35 INFO dfs.FSNamesystem: BLOCK* NameSystem.addStoredBlock: blockMap updated: 10.251.199.86:50010 is added to blk_3762366616652794081 size 67108864
11646	081109 203717 35 INFO dfs.FSNamesystem: BLOCK* NameSystem.addStoredBlock: blockMap updated: 10.251.66.3:50010 is added to blk_-4544790754104531975 size 67108864
11647	081109 203717 35 INFO dfs.FSNamesystem: BLOCK* NameSystem.allocateBlock: /user/root/rand/_temporary/_task_200811092030_0001_m_000316_0/part-00316. blk_2544340128461285107
11648	081109 203717 35 INFO dfs.FSNamesystem: BLOCK* NameSystem.allocateBlock: /user/root/rand/_temporary/_task_200811092030_0001_m_000345_0/part-00345. blk_6481102757461949828
11649	081109 203717 35 INFO dfs.FSNamesystem: BLOCK* NameSystem.allocateBlock: /user/root/rand/_temporary/_task_200811092030_0001_m_000400_0/part-00400. blk_6458675875817635390
11650	081109 203718 177 INFO dfs.DataNode$PacketResponder: PacketResponder 2 for block blk_-4292103160769565108 terminating
11651	081109 203718 177 INFO dfs.DataNode$PacketResponder: Received block blk_-4292103160769565108 of size 67108864 from /10.251.30.101
11652	081109 203718 179 INFO dfs.DataNode$PacketResponder: PacketResponder 1 for block blk_7221391155290050682 terminating
11653	081109 203718 179 INFO dfs.DataNode$PacketResponder: Received block blk_7221391155290050682 of size 67108864 from /10.251.215.16
11654	081109 203718 180 INFO dfs.DataNode$PacketResponder: PacketResponder 0 for block blk_-4292103160769565108 terminating
11655	081109 203718 180 INFO dfs.DataNode$PacketResponder: PacketResponder 1 for block blk_-820350698742608250 terminating
11656	081109 203718 180 INFO dfs.DataNode$PacketResponder: Received block blk_-4292103160769565108 of size 67108864 from /10.251.199.86
11657	081109 203718 180 INFO dfs.DataNode$PacketResponder: Received block blk_-820350698742608250 of size 67108864 from /10.251.67.225
11658	081109 203718 183 INFO dfs.DataNode$PacketResponder: PacketResponder 1 for block blk_-4292103160769565108 terminating
11659	081109 203718 183 INFO dfs.DataNode$PacketResponder: Received block blk_-4292103160769565108 of size 67108864 from /10.251.30.101
11660	081109 203718 186 INFO dfs.DataNode$PacketResponder: PacketResponder 0 for block blk_-2223743786532653404 terminating
11661	081109 203718 186 INFO dfs.DataNode$PacketResponder: PacketResponder 0 for block blk_7221391155290050682 terminating
11662	081109 203718 186 INFO dfs.DataNode$PacketResponder: PacketResponder 0 for block blk_-884504519407186748 terminating
11663	081109 203718 186 INFO dfs.DataNode$PacketResponder: Received block blk_-2223743786532653404 of size 67108864 from /10.251.90.134
11664	081109 203718 186 INFO dfs.DataNode$PacketResponder: Received block blk_7221391155290050682 of size 67108864 from /10.250.10.213
11665	081109 203718 186 INFO dfs.DataNode$PacketResponder: Received block blk_-884504519407186748 of size 67108864 from /10.251.91.32
11666	081109 203718 188 INFO dfs.DataNode$PacketResponder: PacketResponder 2 for block blk_3932164532372485447 terminating
11667	081109 203718 188 INFO dfs.DataNode$PacketResponder: Received block blk_3932164532372485447 of size 67108864 from /10.250.10.176
11668	081109 203718 189 INFO dfs.DataNode$PacketResponder: PacketResponder 0 for block blk_4579126408496000412 terminating
11669	081109 203718 189 INFO dfs.DataNode$PacketResponder: PacketResponder 2 for block blk_1005764473802773954 terminating
11670	081109 203718 189 INFO dfs.DataNode$PacketResponder: PacketResponder 2 for block blk_2713961931234025070 terminating
11671	081109 203718 189 INFO dfs.DataNode$PacketResponder: PacketResponder 2 for block blk_-7509001624708352080 terminating
11672	081109 203718 189 INFO dfs.DataNode$PacketResponder: PacketResponder 2 for block blk_-820350698742608250 terminating
11673	081109 203718 189 INFO dfs.DataNode$PacketResponder: Received block blk_1005764473802773954 of size 67108864 from /10.251.123.33
11674	081109 203718 189 INFO dfs.DataNode$PacketResponder: Received block blk_2713961931234025070 of size 67108864 from /10.251.35.1
11675	081109 203718 189 INFO dfs.DataNode$PacketResponder: Received block blk_4579126408496000412 of size 67108864 from /10.251.66.63
11676	081109 203718 189 INFO dfs.DataNode$PacketResponder: Received block blk_-7509001624708352080 of size 67108864 from /10.251.122.65
11677	081109 203718 189 INFO dfs.DataNode$PacketResponder: Received block blk_-820350698742608250 of size 67108864 from /10.251.67.225
11678	081109 203718 190 INFO dfs.DataNode$PacketResponder: PacketResponder 1 for block blk_7688023007693766011 terminating
11679	081109 203718 190 INFO dfs.DataNode$PacketResponder: Received block blk_7688023007693766011 of size 67108864 from /10.251.75.228
11680	081109 203718 191 INFO dfs.DataNode$PacketResponder: PacketResponder 1 for block blk_3932164532372485447 terminating
11681	081109 203718 191 INFO dfs.DataNode$PacketResponder: Received block blk_3932164532372485447 of size 67108864 from /10.250.10.176
11682	081109 203718 192 INFO dfs.DataNode$PacketResponder: PacketResponder 1 for block blk_-884504519407186748 terminating
11683	081109 203718 192 INFO dfs.DataNode$PacketResponder: PacketResponder 2 for block blk_6756191001627401745 terminating
11684	081109 203718 192 INFO dfs.DataNode$PacketResponder: PacketResponder 2 for block blk_7688023007693766011 terminating
11685	081109 203718 192 INFO dfs.DataNode$PacketResponder: Received block blk_6756191001627401745 of size 67108864 from /10.250.10.176
11686	081109 203718 192 INFO dfs.DataNode$PacketResponder: Received block blk_7688023007693766011 of size 67108864 from /10.251.75.228
11687	081109 203718 192 INFO dfs.DataNode$PacketResponder: Received block blk_-884504519407186748 of size 67108864 from /10.251.73.188
11688	081109 203718 193 INFO dfs.DataNode$PacketResponder: PacketResponder 0 for block blk_1005764473802773954 terminating
11689	081109 203718 193 INFO dfs.DataNode$PacketResponder: Received block blk_1005764473802773954 of size 67108864 from /10.251.39.179
11690	081109 203718 195 INFO dfs.DataNode$PacketResponder: PacketResponder 0 for block blk_2713961931234025070 terminating
11691	081109 203718 195 INFO dfs.DataNode$PacketResponder: PacketResponder 1 for block blk_4571694201145773221 terminating
11692	081109 203718 195 INFO dfs.DataNode$PacketResponder: PacketResponder 2 for block blk_4579126408496000412 terminating
11693	081109 203718 195 INFO dfs.DataNode$PacketResponder: Received block blk_2713961931234025070 of size 67108864 from /10.251.39.144
11694	081109 203718 195 INFO dfs.DataNode$PacketResponder: Received block blk_4571694201145773221 of size 67108864 from /10.251.67.225
11695	081109 203718 195 INFO dfs.DataNode$PacketResponder: Received block blk_4579126408496000412 of size 67108864 from /10.251.74.192
11696	081109 203718 196 INFO dfs.DataNode$PacketResponder: PacketResponder 0 for block blk_-820350698742608250 terminating
11697	081109 203718 196 INFO dfs.DataNode$PacketResponder: PacketResponder 1 for block blk_2713961931234025070 terminating
11698	081109 203718 196 INFO dfs.DataNode$PacketResponder: PacketResponder 2 for block blk_5198360049421901854 terminating
11699	081109 203718 196 INFO dfs.DataNode$PacketResponder: PacketResponder 2 for block blk_-884504519407186748 terminating
11700	081109 203718 196 INFO dfs.DataNode$PacketResponder: Received block blk_2713961931234025070 of size 67108864 from /10.251.35.1
11701	081109 203718 196 INFO dfs.DataNode$PacketResponder: Received block blk_5198360049421901854 of size 67108864 from /10.251.194.147
11702	081109 203718 196 INFO dfs.DataNode$PacketResponder: Received block blk_-820350698742608250 of size 67108864 from /10.251.70.5
11703	081109 203718 196 INFO dfs.DataNode$PacketResponder: Received block blk_-884504519407186748 of size 67108864 from /10.251.73.188
11704	081109 203718 197 INFO dfs.DataNode$PacketResponder: PacketResponder 0 for block blk_4571694201145773221 terminating
11705	081109 203718 197 INFO dfs.DataNode$PacketResponder: PacketResponder 0 for block blk_7688023007693766011 terminating
11706	081109 203718 197 INFO dfs.DataNode$PacketResponder: Received block blk_4571694201145773221 of size 67108864 from /10.251.26.8
11707	081109 203718 197 INFO dfs.DataNode$PacketResponder: Received block blk_7688023007693766011 of size 67108864 from /10.251.107.98
11708	081109 203718 201 INFO dfs.DataNode$PacketResponder: PacketResponder 0 for block blk_-8341102018333037248 terminating
11709	081109 203718 201 INFO dfs.DataNode$PacketResponder: PacketResponder 1 for block blk_4579126408496000412 terminating
11710	081109 203718 201 INFO dfs.DataNode$PacketResponder: PacketResponder 2 for block blk_4571694201145773221 terminating
11711	081109 203718 201 INFO dfs.DataNode$PacketResponder: Received block blk_4571694201145773221 of size 67108864 from /10.251.67.225
11712	081109 203718 201 INFO dfs.DataNode$PacketResponder: Received block blk_4579126408496000412 of size 67108864 from /10.251.74.192
11713	081109 203718 201 INFO dfs.DataNode$PacketResponder: Received block blk_-8341102018333037248 of size 67108864 from /10.251.90.64
11714	081109 203718 203 INFO dfs.DataNode$PacketResponder: PacketResponder 2 for block blk_-7333092054746368887 terminating
11715	081109 203718 203 INFO dfs.DataNode$PacketResponder: Received block blk_-7333092054746368887 of size 67108864 from /10.251.91.159
11716	081109 203718 208 INFO dfs.DataNode$PacketResponder: PacketResponder 0 for block blk_5198360049421901854 terminating
11717	081109 203718 208 INFO dfs.DataNode$PacketResponder: PacketResponder 1 for block blk_5198360049421901854 terminating
11718	081109 203718 208 INFO dfs.DataNode$PacketResponder: Received block blk_5198360049421901854 of size 67108864 from /10.251.107.196
11719	081109 203718 208 INFO dfs.DataNode$PacketResponder: Received block blk_5198360049421901854 of size 67108864 from /10.251.194.147
11720	081109 203718 210 INFO dfs.DataNode$DataXceiver: Receiving block blk_-3198534009339771093 src: /10.251.67.225:34320 dest: /10.251.67.225:50010
11721	081109 203718 210 INFO dfs.DataNode$DataXceiver: Receiving block blk_5360535177585557321 src: /10.250.18.114:40337 dest: /10.250.18.114:50010
11722	081109 203718 211 INFO dfs.DataNode$PacketResponder: PacketResponder 2 for block blk_7221391155290050682 terminating
11723	081109 203718 211 INFO dfs.DataNode$PacketResponder: Received block blk_7221391155290050682 of size 67108864 from /10.251.215.16
11724	081109 203718 212 INFO dfs.DataNode$DataXceiver: Receiving block blk_-1949968870137262354 src: /10.251.199.19:37797 dest: /10.251.199.19:50010
11725	081109 203718 212 INFO dfs.DataNode$DataXceiver: Receiving block blk_-2382389751032389929 src: /10.251.125.237:55700 dest: /10.251.125.237:50010
11726	081109 203718 212 INFO dfs.DataNode$DataXceiver: Receiving block blk_6481102757461949828 src: /10.250.13.188:48171 dest: /10.250.13.188:50010
11727	081109 203718 213 INFO dfs.DataNode$DataXceiver: Receiving block blk_-1660256537217386052 src: /10.251.70.37:37439 dest: /10.251.70.37:50010
11728	081109 203718 213 INFO dfs.DataNode$DataXceiver: Receiving block blk_-7129938157641579552 src: /10.251.202.181:47526 dest: /10.251.202.181:50010
11729	081109 203718 214 INFO dfs.DataNode$DataXceiver: Receiving block blk_2428203400044134850 src: /10.250.6.214:43835 dest: /10.250.6.214:50010
11730	081109 203718 214 INFO dfs.DataNode$DataXceiver: Receiving block blk_259221690676619372 src: /10.251.67.225:41110 dest: /10.251.67.225:50010
11731	081109 203718 214 INFO dfs.DataNode$DataXceiver: Receiving block blk_3830916988813987029 src: /10.251.74.192:40243 dest: /10.251.74.192:50010
11732	081109 203718 214 INFO dfs.DataNode$DataXceiver: Receiving block blk_4690761409986890576 src: /10.251.123.33:38716 dest: /10.251.123.33:50010
11733	081109 203718 214 INFO dfs.DataNode$DataXceiver: Receiving block blk_7931027618406555566 src: /10.250.7.146:41336 dest: /10.250.7.146:50010
11734	081109 203718 215 INFO dfs.DataNode$DataXceiver: Receiving block blk_-3198534009339771093 src: /10.251.194.102:35402 dest: /10.251.194.102:50010
11735	081109 203718 215 INFO dfs.DataNode$DataXceiver: Receiving block blk_5696371105071535054 src: /10.251.43.192:59201 dest: /10.251.43.192:50010
11736	081109 203718 216 INFO dfs.DataNode$DataXceiver: Receiving block blk_259221690676619372 src: /10.251.67.225:38613 dest: /10.251.67.225:50010
11737	081109 203718 216 INFO dfs.DataNode$DataXceiver: Receiving block blk_7931027618406555566 src: /10.251.71.16:57345 dest: /10.251.71.16:50010
11738	081109 203718 217 INFO dfs.DataNode$DataXceiver: Receiving block blk_-3198534009339771093 src: /10.251.67.225:38615 dest: /10.251.67.225:50010
11739	081109 203718 217 INFO dfs.DataNode$DataXceiver: Receiving block blk_-369649684052371500 src: /10.250.10.176:33142 dest: /10.250.10.176:50010
11740	081109 203718 217 INFO dfs.DataNode$DataXceiver: Receiving block blk_5314913134402471606 src: /10.251.73.188:46579 dest: /10.251.73.188:50010
11741	081109 203718 217 INFO dfs.DataNode$DataXceiver: Receiving block blk_-6927290034341353814 src: /10.251.197.226:37783 dest: /10.251.197.226:50010
11742	081109 203718 217 INFO dfs.DataNode$DataXceiver: Receiving block blk_-8945247159430197854 src: /10.251.194.147:45474 dest: /10.251.194.147:50010
11743	081109 203718 218 INFO dfs.DataNode$DataXceiver: Receiving block blk_-7827099936537135850 src: /10.251.215.16:48347 dest: /10.251.215.16:50010
11744	081109 203718 219 INFO dfs.DataNode$DataXceiver: Receiving block blk_2544340128461285107 src: /10.250.10.100:52387 dest: /10.250.10.100:50010
11745	081109 203718 219 INFO dfs.DataNode$DataXceiver: Receiving block blk_2544340128461285107 src: /10.251.91.229:60204 dest: /10.251.91.229:50010
11746	081109 203718 219 INFO dfs.DataNode$DataXceiver: Receiving block blk_-8989637111546486768 src: /10.251.91.159:41459 dest: /10.251.91.159:50010
11747	081109 203718 220 INFO dfs.DataNode$DataXceiver: Receiving block blk_-369649684052371500 src: /10.250.10.176:39629 dest: /10.250.10.176:50010
11748	081109 203718 220 INFO dfs.DataNode$DataXceiver: Receiving block blk_-5486806594361556790 src: /10.251.30.101:47108 dest: /10.251.30.101:50010
11749	081109 203718 220 INFO dfs.DataNode$DataXceiver: Receiving block blk_-7129938157641579552 src: /10.251.111.228:41655 dest: /10.251.111.228:50010
11750	081109 203718 221 INFO dfs.DataNode$DataXceiver: Receiving block blk_3284650935096064034 src: /10.251.203.179:51103 dest: /10.251.203.179:50010
11751	081109 203718 221 INFO dfs.DataNode$DataXceiver: Receiving block blk_4685864904040870678 src: /10.251.39.192:34153 dest: /10.251.39.192:50010
11752	081109 203718 221 INFO dfs.DataNode$DataXceiver: Receiving block blk_5121865123795875693 src: /10.250.10.176:39630 dest: /10.250.10.176:50010
11753	081109 203718 221 INFO dfs.DataNode$DataXceiver: Receiving block blk_7187385588213969863 src: /10.251.122.65:55146 dest: /10.251.122.65:50010
11754	081109 203718 222 INFO dfs.DataNode$DataXceiver: Receiving block blk_3463356181318432630 src: /10.251.75.228:54179 dest: /10.251.75.228:50010
11755	081109 203718 224 INFO dfs.DataNode$DataXceiver: Receiving block blk_266050041847888654 src: /10.250.17.177:47238 dest: /10.250.17.177:50010
11756	081109 203718 225 INFO dfs.DataNode$DataXceiver: Receiving block blk_5314913134402471606 src: /10.251.73.188:51594 dest: /10.251.73.188:50010
11757	081109 203718 226 INFO dfs.DataNode$DataXceiver: Receiving block blk_-6520030462660619051 src: /10.250.6.214:33316 dest: /10.250.6.214:50010
11758	081109 203718 227 INFO dfs.DataNode$DataXceiver: Receiving block blk_7931027618406555566 src: /10.250.7.146:38274 dest: /10.250.7.146:50010
11759	081109 203718 228 INFO dfs.DataNode$DataXceiver: Receiving block blk_-8183397569667931145 src: /10.251.91.159:57685 dest: /10.251.91.159:50010
11760	081109 203718 229 INFO dfs.DataNode$DataXceiver: Receiving block blk_5121865123795875693 src: /10.250.10.176:54976 dest: /10.250.10.176:50010
11761	081109 203718 240 INFO dfs.DataNode$DataXceiver: Receiving block blk_6458675875817635390 src: /10.251.198.33:40885 dest: /10.251.198.33:50010
11762	081109 203718 241 INFO dfs.DataNode$DataXceiver: Receiving block blk_6458675875817635390 src: /10.251.107.19:45233 dest: /10.251.107.19:50010
11763	081109 203718 244 INFO dfs.DataNode$DataXceiver: Receiving block blk_-7827099936537135850 src: /10.251.215.16:51039 dest: /10.251.215.16:50010
11764	081109 203718 260 INFO dfs.DataNode$PacketResponder: PacketResponder 1 for block blk_1005764473802773954 terminating
11765	081109 203718 260 INFO dfs.DataNode$PacketResponder: Received block blk_1005764473802773954 of size 67108864 from /10.251.123.33
11766	081109 203718 26 INFO dfs.FSNamesystem: BLOCK* NameSystem.addStoredBlock: blockMap updated: 10.251.111.37:50010 is added to blk_4579126408496000412 size 67108864
11767	081109 203718 26 INFO dfs.FSNamesystem: BLOCK* NameSystem.addStoredBlock: blockMap updated: 10.251.73.188:50010 is added to blk_3932164532372485447 size 67108864
11768	081109 203718 26 INFO dfs.FSNamesystem: BLOCK* NameSystem.addStoredBlock: blockMap updated: 10.251.91.32:50010 is added to blk_-884504519407186748 size 67108864
11769	081109 203718 26 INFO dfs.FSNamesystem: BLOCK* NameSystem.allocateBlock: /user/root/rand/_temporary/_task_200811092030_0001_m_000195_0/part-00195. blk_-1660256537217386052
11770	081109 203718 26 INFO dfs.FSNamesystem: BLOCK* NameSystem.allocateBlock: /user/root/rand/_temporary/_task_200811092030_0001_m_000364_0/part-00364. blk_-8183397569667931145
11771	081109 203718 26 INFO dfs.FSNamesystem: BLOCK* NameSystem.allocateBlock: /user/root/rand/_temporary/_task_200811092030_0001_m_000378_0/part-00378. blk_5121865123795875693
11772	081109 203718 27 INFO dfs.FSNamesystem: BLOCK* NameSystem.addStoredBlock: blockMap updated: 10.251.26.8:50010 is added to blk_4571694201145773221 size 67108864
11773	081109 203718 27 INFO dfs.FSNamesystem: BLOCK* NameSystem.addStoredBlock: blockMap updated: 10.251.39.192:50010 is added to blk_2713961931234025070 size 67108864
11774	081109 203718 27 INFO dfs.FSNamesystem: BLOCK* NameSystem.addStoredBlock: blockMap updated: 10.251.66.63:50010 is added to blk_4579126408496000412 size 67108864
11775	081109 203718 27 INFO dfs.FSNamesystem: BLOCK* NameSystem.addStoredBlock: blockMap updated: 10.251.70.37:50010 is added to blk_-7800707847661743046 size 67108864
11776	081109 203718 27 INFO dfs.FSNamesystem: BLOCK* NameSystem.addStoredBlock: blockMap updated: 10.251.70.5:50010 is added to blk_-820350698742608250 size 67108864
11777	081109 203718 27 INFO dfs.FSNamesystem: BLOCK* NameSystem.addStoredBlock: blockMap updated: 10.251.74.134:50010 is added to blk_5307863097968695533 size 67108864
11778	081109 203718 27 INFO dfs.FSNamesystem: BLOCK* NameSystem.allocateBlock: /user/root/rand/_temporary/_task_200811092030_0001_m_000116_0/part-00116. blk_7187385588213969863
11779	081109 203718 27 INFO dfs.FSNamesystem: BLOCK* NameSystem.allocateBlock: /user/root/rand/_temporary/_task_200811092030_0001_m_000341_0/part-00341. blk_7931027618406555566
11780	081109 203718 28 INFO dfs.FSNamesystem: BLOCK* NameSystem.addStoredBlock: blockMap updated: 10.250.10.176:50010 is added to blk_3932164532372485447 size 67108864
11781	081109 203718 28 INFO dfs.FSNamesystem: BLOCK* NameSystem.addStoredBlock: blockMap updated: 10.250.10.176:50010 is added to blk_6756191001627401745 size 67108864
11782	081109 203718 28 INFO dfs.FSNamesystem: BLOCK* NameSystem.addStoredBlock: blockMap updated: 10.250.10.213:50010 is added to blk_7221391155290050682 size 67108864
11783	081109 203718 28 INFO dfs.FSNamesystem: BLOCK* NameSystem.addStoredBlock: blockMap updated: 10.251.122.65:50010 is added to blk_-7509001624708352080 size 67108864
11784	081109 203718 28 INFO dfs.FSNamesystem: BLOCK* NameSystem.addStoredBlock: blockMap updated: 10.251.199.86:50010 is added to blk_-4292103160769565108 size 67108864
11785	081109 203718 28 INFO dfs.FSNamesystem: BLOCK* NameSystem.allocateBlock: /user/root/rand/_temporary/_task_200811092030_0001_m_000020_0/part-00020. blk_3830916988813987029
11786	081109 203718 28 INFO dfs.FSNamesystem: BLOCK* NameSystem.allocateBlock: /user/root/rand/_temporary/_task_200811092030_0001_m_000079_0/part-00079. blk_-7827099936537135850
11787	081109 203718 29 INFO dfs.FSNamesystem: BLOCK* NameSystem.addStoredBlock: blockMap updated: 10.251.91.159:50010 is added to blk_-7333092054746368887 size 67108864
11788	081109 203718 29 INFO dfs.FSNamesystem: BLOCK* NameSystem.allocateBlock: /user/root/rand/_temporary/_task_200811092030_0001_m_000075_0/part-00075. blk_5314913134402471606
11789	081109 203718 29 INFO dfs.FSNamesystem: BLOCK* NameSystem.allocateBlock: /user/root/rand/_temporary/_task_200811092030_0001_m_000094_0/part-00094. blk_-8945247159430197854
11790	081109 203718 29 INFO dfs.FSNamesystem: BLOCK* NameSystem.allocateBlock: /user/root/rand/_temporary/_task_200811092030_0001_m_000145_0/part-00145. blk_-3198534009339771093
11791	081109 203718 29 INFO dfs.FSNamesystem: BLOCK* NameSystem.allocateBlock: /user/root/rand/_temporary/_task_200811092030_0001_m_000270_0/part-00270. blk_-5486806594361556790
11792	081109 203718 30 INFO dfs.FSNamesystem: BLOCK* NameSystem.addStoredBlock: blockMap updated: 10.251.123.33:50010 is added to blk_1005764473802773954 size 67108864
11793	081109 203718 30 INFO dfs.FSNamesystem: BLOCK* NameSystem.addStoredBlock: blockMap updated: 10.251.194.102:50010 is added to blk_-4690715941677619474 size 67108864
11794	081109 203718 30 INFO dfs.FSNamesystem: BLOCK* NameSystem.addStoredBlock: blockMap updated: 10.251.194.147:50010 is added to blk_5198360049421901854 size 67108864
11795	081109 203718 31 INFO dfs.FSNamesystem: BLOCK* NameSystem.addStoredBlock: blockMap updated: 10.251.126.255:50010 is added to blk_6756191001627401745 size 67108864
11796	081109 203718 32 INFO dfs.FSNamesystem: BLOCK* NameSystem.addStoredBlock: blockMap updated: 10.250.7.146:50010 is added to blk_27168498893201242 size 67108864
11797	081109 203718 32 INFO dfs.FSNamesystem: BLOCK* NameSystem.addStoredBlock: blockMap updated: 10.251.215.16:50010 is added to blk_7221391155290050682 size 67108864
11798	081109 203718 32 INFO dfs.FSNamesystem: BLOCK* NameSystem.addStoredBlock: blockMap updated: 10.251.30.101:50010 is added to blk_-4292103160769565108 size 67108864
11799	081109 203718 32 INFO dfs.FSNamesystem: BLOCK* NameSystem.addStoredBlock: blockMap updated: 10.251.39.144:50010 is added to blk_2713961931234025070 size 67108864
11800	081109 203718 32 INFO dfs.FSNamesystem: BLOCK* NameSystem.addStoredBlock: blockMap updated: 10.251.39.179:50010 is added to blk_1005764473802773954 size 67108864
11801	081109 203718 32 INFO dfs.FSNamesystem: BLOCK* NameSystem.addStoredBlock: blockMap updated: 10.251.66.3:50010 is added to blk_1005764473802773954 size 67108864
11802	081109 203718 32 INFO dfs.FSNamesystem: BLOCK* NameSystem.allocateBlock: /user/root/rand/_temporary/_task_200811092030_0001_m_000182_0/part-00182. blk_-369649684052371500
11803	081109 203718 33 INFO dfs.FSNamesystem: BLOCK* NameSystem.addStoredBlock: blockMap updated: 10.250.15.67:50010 is added to blk_7221391155290050682 size 67108864
11804	081109 203718 33 INFO dfs.FSNamesystem: BLOCK* NameSystem.addStoredBlock: blockMap updated: 10.251.110.196:50010 is added to blk_-820350698742608250 size 67108864
11805	081109 203718 33 INFO dfs.FSNamesystem: BLOCK* NameSystem.addStoredBlock: blockMap updated: 10.251.202.181:50010 is added to blk_5198360049421901854 size 67108864
11806	081109 203718 33 INFO dfs.FSNamesystem: BLOCK* NameSystem.addStoredBlock: blockMap updated: 10.251.67.225:50010 is added to blk_4571694201145773221 size 67108864
11807	081109 203718 33 INFO dfs.FSNamesystem: BLOCK* NameSystem.allocateBlock: /user/root/rand/_temporary/_task_200811092030_0001_m_000054_0/part-00054. blk_259221690676619372
11808	081109 203718 34 INFO dfs.FSNamesystem: BLOCK* NameSystem.addStoredBlock: blockMap updated: 10.250.7.32:50010 is added to blk_-7333092054746368887 size 67108864
11809	081109 203718 34 INFO dfs.FSNamesystem: BLOCK* NameSystem.addStoredBlock: blockMap updated: 10.251.107.196:50010 is added to blk_5198360049421901854 size 67108864
11810	081109 203718 34 INFO dfs.FSNamesystem: BLOCK* NameSystem.addStoredBlock: blockMap updated: 10.251.31.160:50010 is added to blk_-4292103160769565108 size 67108864
11811	081109 203718 34 INFO dfs.FSNamesystem: BLOCK* NameSystem.allocateBlock: /user/root/rand/_temporary/_task_200811092030_0001_m_000338_0/part-00338. blk_4690761409986890576
11812	081109 203718 35 INFO dfs.FSNamesystem: BLOCK* NameSystem.addStoredBlock: blockMap updated: 10.251.106.214:50010 is added to blk_4571694201145773221 size 67108864
11813	081109 203718 35 INFO dfs.FSNamesystem: BLOCK* NameSystem.addStoredBlock: blockMap updated: 10.251.111.228:50010 is added to blk_7688023007693766011 size 67108864
11814	081109 203718 35 INFO dfs.FSNamesystem: BLOCK* NameSystem.addStoredBlock: blockMap updated: 10.251.126.22:50010 is added to blk_-884504519407186748 size 67108864
11815	081109 203718 35 INFO dfs.FSNamesystem: BLOCK* NameSystem.addStoredBlock: blockMap updated: 10.251.67.225:50010 is added to blk_-820350698742608250 size 67108864
11816	081109 203718 35 INFO dfs.FSNamesystem: BLOCK* NameSystem.addStoredBlock: blockMap updated: 10.251.73.188:50010 is added to blk_-884504519407186748 size 67108864
11817	081109 203718 35 INFO dfs.FSNamesystem: BLOCK* NameSystem.addStoredBlock: blockMap updated: 10.251.74.192:50010 is added to blk_4579126408496000412 size 67108864
11818	081109 203719 13 INFO dfs.DataBlockScanner: Verification succeeded for blk_-1548346834251221499
11819	081109 203719 13 INFO dfs.DataBlockScanner: Verification succeeded for blk_-8054782785917830420
11820	081109 203719 178 INFO dfs.DataNode$PacketResponder: PacketResponder 1 for block blk_-2223743786532653404 terminating
11821	081109 203719 178 INFO dfs.DataNode$PacketResponder: Received block blk_-2223743786532653404 of size 67108864 from /10.251.199.86
11822	081109 203719 180 INFO dfs.DataNode$PacketResponder: PacketResponder 2 for block blk_6774601527177062062 terminating
11823	081109 203719 180 INFO dfs.DataNode$PacketResponder: Received block blk_6774601527177062062 of size 67108864 from /10.251.215.70
11824	081109 203719 181 INFO dfs.DataNode$PacketResponder: PacketResponder 0 for block blk_6774601527177062062 terminating
11825	081109 203719 181 INFO dfs.DataNode$PacketResponder: Received block blk_6774601527177062062 of size 67108864 from /10.251.91.159
11826	081109 203719 184 INFO dfs.DataNode$PacketResponder: PacketResponder 0 for block blk_7523193419675083274 terminating
11827	081109 203719 184 INFO dfs.DataNode$PacketResponder: Received block blk_7523193419675083274 of size 67108864 from /10.251.75.79
11828	081109 203719 185 INFO dfs.DataNode$PacketResponder: PacketResponder 1 for block blk_7523193419675083274 terminating
11829	081109 203719 185 INFO dfs.DataNode$PacketResponder: Received block blk_7523193419675083274 of size 67108864 from /10.251.214.175
11830	081109 203719 188 INFO dfs.DataNode$PacketResponder: PacketResponder 0 for block blk_-5704227645362474955 terminating
11831	081109 203719 188 INFO dfs.DataNode$PacketResponder: PacketResponder 0 for block blk_-6240913313403504862 terminating
11832	081109 203719 188 INFO dfs.DataNode$PacketResponder: PacketResponder 1 for block blk_6774601527177062062 terminating
11833	081109 203719 188 INFO dfs.DataNode$PacketResponder: PacketResponder 2 for block blk_-2223743786532653404 terminating
11834	081109 203719 188 INFO dfs.DataNode$PacketResponder: Received block blk_-2223743786532653404 of size 67108864 from /10.251.199.86
11835	081109 203719 188 INFO dfs.DataNode$PacketResponder: Received block blk_-5704227645362474955 of size 67108864 from /10.251.66.63
11836	081109 203719 188 INFO dfs.DataNode$PacketResponder: Received block blk_-6240913313403504862 of size 67108864 from /10.251.203.246
11837	081109 203719 188 INFO dfs.DataNode$PacketResponder: Received block blk_6774601527177062062 of size 67108864 from /10.251.215.70
11838	081109 203719 190 INFO dfs.DataNode$PacketResponder: PacketResponder 1 for block blk_-5704227645362474955 terminating
11839	081109 203719 190 INFO dfs.DataNode$PacketResponder: Received block blk_-5704227645362474955 of size 67108864 from /10.251.110.8
11840	081109 203719 191 INFO dfs.DataNode$PacketResponder: PacketResponder 1 for block blk_-3883105563868090428 terminating
11841	081109 203719 191 INFO dfs.DataNode$PacketResponder: PacketResponder 2 for block blk_7523193419675083274 terminating
11842	081109 203719 191 INFO dfs.DataNode$PacketResponder: Received block blk_-3883105563868090428 of size 67108864 from /10.251.42.191
11843	081109 203719 191 INFO dfs.DataNode$PacketResponder: Received block blk_7523193419675083274 of size 67108864 from /10.251.214.175
11844	081109 203719 192 INFO dfs.DataNode$PacketResponder: PacketResponder 1 for block blk_-6240913313403504862 terminating
11845	081109 203719 192 INFO dfs.DataNode$PacketResponder: Received block blk_-6240913313403504862 of size 67108864 from /10.250.19.227
11846	081109 203719 193 INFO dfs.DataNode$PacketResponder: PacketResponder 0 for block blk_5850743196591433560 terminating
11847	081109 203719 193 INFO dfs.DataNode$PacketResponder: PacketResponder 2 for block blk_5850743196591433560 terminating
11848	081109 203719 193 INFO dfs.DataNode$PacketResponder: PacketResponder 2 for block blk_-6240913313403504862 terminating
11849	081109 203719 193 INFO dfs.DataNode$PacketResponder: Received block blk_5850743196591433560 of size 67108864 from /10.251.35.1
11850	081109 203719 193 INFO dfs.DataNode$PacketResponder: Received block blk_5850743196591433560 of size 67108864 from /10.251.66.63
11851	081109 203719 193 INFO dfs.DataNode$PacketResponder: Received block blk_-6240913313403504862 of size 67108864 from /10.250.19.227
11852	081109 203719 194 INFO dfs.DataNode$PacketResponder: PacketResponder 0 for block blk_1756874515302969268 terminating
11853	081109 203719 194 INFO dfs.DataNode$PacketResponder: PacketResponder 1 for block blk_-4575945680498324254 terminating
11854	081109 203719 194 INFO dfs.DataNode$PacketResponder: Received block blk_1756874515302969268 of size 67108864 from /10.251.70.112
11855	081109 203719 194 INFO dfs.DataNode$PacketResponder: Received block blk_-4575945680498324254 of size 67108864 from /10.251.214.18
11856	081109 203719 195 INFO dfs.DataNode$PacketResponder: PacketResponder 2 for block blk_-4765926974911946277 terminating
11857	081109 203719 195 INFO dfs.DataNode$PacketResponder: Received block blk_-4765926974911946277 of size 67108864 from /10.251.109.209
11858	081109 203719 196 INFO dfs.DataNode$PacketResponder: PacketResponder 0 for block blk_-158622295347645566 terminating
11859	081109 203719 196 INFO dfs.DataNode$PacketResponder: PacketResponder 0 for block blk_-4575945680498324254 terminating
11860	081109 203719 196 INFO dfs.DataNode$PacketResponder: PacketResponder 1 for block blk_-4765926974911946277 terminating
11861	081109 203719 196 INFO dfs.DataNode$PacketResponder: PacketResponder 2 for block blk_-3883105563868090428 terminating
11862	081109 203719 196 INFO dfs.DataNode$PacketResponder: Received block blk_-158622295347645566 of size 67108864 from /10.251.75.228
11863	081109 203719 196 INFO dfs.DataNode$PacketResponder: Received block blk_-3883105563868090428 of size 67108864 from /10.251.42.191
11864	081109 203719 196 INFO dfs.DataNode$PacketResponder: Received block blk_-4575945680498324254 of size 67108864 from /10.251.42.191
11865	081109 203719 196 INFO dfs.DataNode$PacketResponder: Received block blk_-4765926974911946277 of size 67108864 from /10.251.109.209
11866	081109 203719 197 INFO dfs.DataNode$PacketResponder: PacketResponder 0 for block blk_-3883105563868090428 terminating
11867	081109 203719 197 INFO dfs.DataNode$PacketResponder: PacketResponder 0 for block blk_-4765926974911946277 terminating
11868	081109 203719 197 INFO dfs.DataNode$PacketResponder: PacketResponder 1 for block blk_8716244237763720958 terminating
11869	081109 203719 197 INFO dfs.DataNode$PacketResponder: PacketResponder 2 for block blk_-5704227645362474955 terminating
11870	081109 203719 197 INFO dfs.DataNode$PacketResponder: Received block blk_-3883105563868090428 of size 67108864 from /10.250.11.194
11871	081109 203719 197 INFO dfs.DataNode$PacketResponder: Received block blk_-4765926974911946277 of size 67108864 from /10.251.91.159
11872	081109 203719 197 INFO dfs.DataNode$PacketResponder: Received block blk_-5704227645362474955 of size 67108864 from /10.251.110.8
11873	081109 203719 197 INFO dfs.DataNode$PacketResponder: Received block blk_8716244237763720958 of size 67108864 from /10.251.121.224
11874	081109 203719 198 INFO dfs.DataNode$PacketResponder: PacketResponder 2 for block blk_-4575945680498324254 terminating
11875	081109 203719 198 INFO dfs.DataNode$PacketResponder: Received block blk_-4575945680498324254 of size 67108864 from /10.251.214.18
11876	081109 203719 200 INFO dfs.DataNode$PacketResponder: PacketResponder 2 for block blk_-158622295347645566 terminating
11877	081109 203719 200 INFO dfs.DataNode$PacketResponder: PacketResponder 2 for block blk_-8341102018333037248 terminating
11878	081109 203719 200 INFO dfs.DataNode$PacketResponder: Received block blk_-158622295347645566 of size 67108864 from /10.250.17.177
11879	081109 203719 200 INFO dfs.DataNode$PacketResponder: Received block blk_-8341102018333037248 of size 67108864 from /10.251.31.85
11880	081109 203719 201 INFO dfs.DataNode$PacketResponder: PacketResponder 1 for block blk_-158622295347645566 terminating
11881	081109 203719 201 INFO dfs.DataNode$PacketResponder: Received block blk_-158622295347645566 of size 67108864 from /10.250.17.177
11882	081109 203719 204 INFO dfs.DataNode$PacketResponder: PacketResponder 1 for block blk_5850743196591433560 terminating
11883	081109 203719 204 INFO dfs.DataNode$PacketResponder: Received block blk_5850743196591433560 of size 67108864 from /10.251.35.1
11884	081109 203719 211 INFO dfs.DataNode$DataXceiver: Receiving block blk_8750997530106786888 src: /10.251.35.1:37157 dest: /10.251.35.1:50010
11885	081109 203719 211 INFO dfs.DataNode$PacketResponder: PacketResponder 1 for block blk_-8341102018333037248 terminating
11886	081109 203719 211 INFO dfs.DataNode$PacketResponder: Received block blk_-8341102018333037248 of size 67108864 from /10.251.31.85
11887	081109 203719 212 INFO dfs.DataNode$DataXceiver: Receiving block blk_5879148549241011453 src: /10.251.35.1:37158 dest: /10.251.35.1:50010
11888	081109 203719 213 INFO dfs.DataNode$DataXceiver: Receiving block blk_3463356181318432630 src: /10.250.13.240:34553 dest: /10.250.13.240:50010
11889	081109 203719 213 INFO dfs.DataNode$DataXceiver: Receiving block blk_5879148549241011453 src: /10.251.67.225:43478 dest: /10.251.67.225:50010
11890	081109 203719 214 INFO dfs.DataNode$DataXceiver: Receiving block blk_-2236131320508581157 src: /10.251.215.70:57574 dest: /10.251.215.70:50010
11891	081109 203719 214 INFO dfs.DataNode$DataXceiver: Receiving block blk_-6541926024237959879 src: /10.250.19.227:34334 dest: /10.250.19.227:50010
11892	081109 203719 215 INFO dfs.DataNode$DataXceiver: Receiving block blk_-1660256537217386052 src: /10.251.38.197:49520 dest: /10.251.38.197:50010
11893	081109 203719 215 INFO dfs.DataNode$DataXceiver: Receiving block blk_4281276703174061744 src: /10.250.10.6:52266 dest: /10.250.10.6:50010
11894	081109 203719 215 INFO dfs.DataNode$DataXceiver: Receiving block blk_5696371105071535054 src: /10.251.125.174:36649 dest: /10.251.125.174:50010
11895	081109 203719 215 INFO dfs.DataNode$DataXceiver: Receiving block blk_6142121585577592304 src: /10.251.31.85:44471 dest: /10.251.31.85:50010
11896	081109 203719 215 INFO dfs.DataNode$DataXceiver: Receiving block blk_6142121585577592304 src: /10.251.89.155:45249 dest: /10.251.89.155:50010
11897	081109 203719 216 INFO dfs.DataNode$DataXceiver: Receiving block blk_7187385588213969863 src: /10.251.127.191:41061 dest: /10.251.127.191:50010
11898	081109 203719 216 INFO dfs.DataNode$DataXceiver: Receiving block blk_-8183397569667931145 src: /10.251.90.64:35107 dest: /10.251.90.64:50010
11899	081109 203719 217 INFO dfs.DataNode$DataXceiver: Receiving block blk_-6541926024237959879 src: /10.250.19.227:37244 dest: /10.250.19.227:50010
11900	081109 203719 218 INFO dfs.DataNode$DataXceiver: Receiving block blk_-1562349907678845317 src: /10.251.109.209:60999 dest: /10.251.109.209:50010
11901	081109 203719 218 INFO dfs.DataNode$DataXceiver: Receiving block blk_3284650935096064034 src: /10.250.6.4:53651 dest: /10.250.6.4:50010
11902	081109 203719 218 INFO dfs.DataNode$DataXceiver: Receiving block blk_-3634129476677736855 src: /10.251.214.18:55479 dest: /10.251.214.18:50010
11903	081109 203719 218 INFO dfs.DataNode$DataXceiver: Receiving block blk_5314913134402471606 src: /10.251.43.147:42486 dest: /10.251.43.147:50010
11904	081109 203719 218 INFO dfs.DataNode$DataXceiver: Receiving block blk_-8945247159430197854 src: /10.251.194.147:40847 dest: /10.251.194.147:50010
11905	081109 203719 219 INFO dfs.DataNode$DataXceiver: Receiving block blk_5121865123795875693 src: /10.251.73.220:33970 dest: /10.251.73.220:50010
11906	081109 203719 219 INFO dfs.DataNode$DataXceiver: Receiving block blk_-5486806594361556790 src: /10.250.13.240:44407 dest: /10.250.13.240:50010
11907	081109 203719 219 INFO dfs.DataNode$DataXceiver: Receiving block blk_5879148549241011453 src: /10.251.35.1:37453 dest: /10.251.35.1:50010
11908	081109 203719 219 INFO dfs.DataNode$DataXceiver: Receiving block blk_6481102757461949828 src: /10.251.127.243:60014 dest: /10.251.127.243:50010
11909	081109 203719 219 INFO dfs.DataNode$DataXceiver: Receiving block blk_-8841946190908468736 src: /10.251.42.191:50196 dest: /10.251.42.191:50010
11910	081109 203719 220 INFO dfs.DataNode$DataXceiver: Receiving block blk_-4853591198624003599 src: /10.251.214.175:52343 dest: /10.251.214.175:50010
11911	081109 203719 220 INFO dfs.DataNode$DataXceiver: Receiving block blk_-5486806594361556790 src: /10.251.30.101:59433 dest: /10.251.30.101:50010
11912	081109 203719 220 INFO dfs.DataNode$DataXceiver: Receiving block blk_7187385588213969863 src: /10.251.122.65:37444 dest: /10.251.122.65:50010
11913	081109 203719 221 INFO dfs.DataNode$DataXceiver: Receiving block blk_-1562349907678845317 src: /10.251.109.209:46608 dest: /10.251.109.209:50010
11914	081109 203719 221 INFO dfs.DataNode$DataXceiver: Receiving block blk_3463356181318432630 src: /10.251.75.228:45314 dest: /10.251.75.228:50010
11915	081109 203719 221 INFO dfs.DataNode$DataXceiver: Receiving block blk_3830916988813987029 src: /10.251.110.160:43397 dest: /10.251.110.160:50010
11916	081109 203719 222 INFO dfs.DataNode$DataXceiver: Receiving block blk_1079062196178133512 src: /10.250.17.177:34205 dest: /10.250.17.177:50010
11917	081109 203719 222 INFO dfs.DataNode$DataXceiver: Receiving block blk_4281276703174061744 src: /10.251.199.86:42723 dest: /10.251.199.86:50010
11918	081109 203719 222 INFO dfs.DataNode$DataXceiver: Receiving block blk_7781969598240387068 src: /10.251.110.8:33511 dest: /10.251.110.8:50010
11919	081109 203719 222 INFO dfs.DataNode$DataXceiver: Receiving block blk_8750997530106786888 src: /10.251.35.1:51998 dest: /10.251.35.1:50010
11920	081109 203719 223 INFO dfs.DataNode$DataXceiver: Receiving block blk_-1660256537217386052 src: /10.251.70.37:37411 dest: /10.251.70.37:50010
11921	081109 203719 223 INFO dfs.DataNode$DataXceiver: Receiving block blk_6142121585577592304 src: /10.251.31.85:58220 dest: /10.251.31.85:50010
11922	081109 203719 223 INFO dfs.DataNode$DataXceiver: Receiving block blk_-7827099936537135850 src: /10.251.215.192:58583 dest: /10.251.215.192:50010
11923	081109 203719 226 INFO dfs.DataNode$DataXceiver: Receiving block blk_3830916988813987029 src: /10.251.74.192:51629 dest: /10.251.74.192:50010
11924	081109 203719 227 INFO dfs.DataNode$DataXceiver: Receiving block blk_4690761409986890576 src: /10.251.123.33:59397 dest: /10.251.123.33:50010
11925	081109 203719 229 INFO dfs.DataNode$DataXceiver: Receiving block blk_-8183397569667931145 src: /10.251.91.159:38229 dest: /10.251.91.159:50010
11926	081109 203719 243 INFO dfs.DataNode$DataXceiver: Receiving block blk_-369649684052371500 src: /10.251.42.207:52455 dest: /10.251.42.207:50010
11927	081109 203719 246 INFO dfs.DataNode$DataXceiver: Receiving block blk_-8945247159430197854 src: /10.251.30.179:34587 dest: /10.251.30.179:50010
11928	081109 203719 247 INFO dfs.DataNode$DataXceiver: Receiving block blk_4281276703174061744 src: /10.251.199.86:56841 dest: /10.251.199.86:50010
11929	081109 203719 26 INFO dfs.FSNamesystem: BLOCK* NameSystem.addStoredBlock: blockMap updated: 10.251.214.175:50010 is added to blk_7523193419675083274 size 67108864
11930	081109 203719 26 INFO dfs.FSNamesystem: BLOCK* NameSystem.addStoredBlock: blockMap updated: 10.251.91.15:50010 is added to blk_1756874515302969268 size 67108864
11931	081109 203719 26 INFO dfs.FSNamesystem: BLOCK* NameSystem.allocateBlock: /user/root/rand/_temporary/_task_200811092030_0001_m_000200_0/part-00200. blk_4281276703174061744
11932	081109 203719 27 INFO dfs.FSNamesystem: BLOCK* NameSystem.addStoredBlock: blockMap updated: 10.251.199.245:50010 is added to blk_-3883105563868090428 size 67108864
11933	081109 203719 27 INFO dfs.FSNamesystem: BLOCK* NameSystem.addStoredBlock: blockMap updated: 10.251.90.64:50010 is added to blk_-8341102018333037248 size 67108864
11934	081109 203719 27 INFO dfs.FSNamesystem: BLOCK* NameSystem.allocateBlock: /user/root/rand/_temporary/_task_200811092030_0001_m_000172_0/part-00172. blk_-1562349907678845317
11935	081109 203719 27 INFO dfs.FSNamesystem: BLOCK* NameSystem.allocateBlock: /user/root/rand/_temporary/_task_200811092030_0001_m_000189_0/part-00189. blk_7781969598240387068
11936	081109 203719 28 INFO dfs.FSNamesystem: BLOCK* NameSystem.addStoredBlock: blockMap updated: 10.250.19.227:50010 is added to blk_-5704227645362474955 size 67108864
11937	081109 203719 28 INFO dfs.FSNamesystem: BLOCK* NameSystem.addStoredBlock: blockMap updated: 10.251.35.1:50010 is added to blk_2713961931234025070 size 67108864
11938	081109 203719 28 INFO dfs.FSNamesystem: BLOCK* NameSystem.addStoredBlock: blockMap updated: 10.251.35.1:50010 is added to blk_5850743196591433560 size 67108864
11939	081109 203719 28 INFO dfs.FSNamesystem: BLOCK* NameSystem.addStoredBlock: blockMap updated: 10.251.37.240:50010 is added to blk_-4765926974911946277 size 67108864
11940	081109 203719 29 INFO dfs.FSNamesystem: BLOCK* NameSystem.addStoredBlock: blockMap updated: 10.251.75.79:50010 is added to blk_7523193419675083274 size 67108864
11941	081109 203719 29 INFO dfs.FSNamesystem: BLOCK* NameSystem.allocateBlock: /user/root/rand/_temporary/_task_200811092030_0001_m_000014_0/part-00014. blk_1079062196178133512
11942	081109 203719 29 INFO dfs.FSNamesystem: BLOCK* NameSystem.allocateBlock: /user/root/rand/_temporary/_task_200811092030_0001_m_000051_0/part-00051. blk_-8841946190908468736
11943	081109 203719 29 INFO dfs.FSNamesystem: BLOCK* NameSystem.allocateBlock: /user/root/rand/_temporary/_task_200811092030_0001_m_000118_0/part-00118. blk_-6541926024237959879
11944	081109 203719 29 INFO dfs.FSNamesystem: BLOCK* NameSystem.allocateBlock: /user/root/rand/_temporary/_task_200811092030_0001_m_000232_0/part-00232. blk_3463356181318432630
11945	081109 203719 30 INFO dfs.FSNamesystem: BLOCK* NameSystem.addStoredBlock: blockMap updated: 10.251.110.8:50010 is added to blk_-5704227645362474955 size 67108864
11946	081109 203719 30 INFO dfs.FSNamesystem: BLOCK* NameSystem.addStoredBlock: blockMap updated: 10.251.122.38:50010 is added to blk_-4575945680498324254 size 67108864
11947	081109 203719 30 INFO dfs.FSNamesystem: BLOCK* NameSystem.addStoredBlock: blockMap updated: 10.251.199.86:50010 is added to blk_-2223743786532653404 size 67108864
11948	081109 203719 30 INFO dfs.FSNamesystem: BLOCK* NameSystem.addStoredBlock: blockMap updated: 10.251.71.16:50010 is added to blk_-2223743786532653404 size 67108864
11949	081109 203719 30 INFO dfs.FSNamesystem: BLOCK* NameSystem.addStoredBlock: blockMap updated: 10.251.91.32:50010 is added to blk_7523193419675083274 size 67108864
11950	081109 203719 31 INFO dfs.FSNamesystem: BLOCK* NameSystem.addStoredBlock: blockMap updated: 10.251.214.18:50010 is added to blk_-4575945680498324254 size 67108864
11951	081109 203719 31 INFO dfs.FSNamesystem: BLOCK* NameSystem.addStoredBlock: blockMap updated: 10.251.66.63:50010 is added to blk_-5704227645362474955 size 67108864
11952	081109 203719 31 INFO dfs.FSNamesystem: BLOCK* NameSystem.allocateBlock: /user/root/rand/_temporary/_task_200811092030_0001_m_000027_0/part-00027. blk_6142121585577592304
11953	081109 203719 32 INFO dfs.FSNamesystem: BLOCK* NameSystem.addStoredBlock: blockMap updated: 10.251.42.191:50010 is added to blk_-3883105563868090428 size 67108864
11954	081109 203719 32 INFO dfs.FSNamesystem: BLOCK* NameSystem.addStoredBlock: blockMap updated: 10.251.42.191:50010 is added to blk_-4575945680498324254 size 67108864
11955	081109 203719 32 INFO dfs.FSNamesystem: BLOCK* NameSystem.addStoredBlock: blockMap updated: 10.251.75.228:50010 is added to blk_-158622295347645566 size 67108864
11956	081109 203719 32 INFO dfs.FSNamesystem: BLOCK* NameSystem.allocateBlock: /user/root/rand/_temporary/_task_200811092030_0001_m_000331_0/part-00331. blk_5879148549241011453
11957	081109 203719 33 INFO dfs.FSNamesystem: BLOCK* NameSystem.addStoredBlock: blockMap updated: 10.250.19.227:50010 is added to blk_-6240913313403504862 size 67108864
11958	081109 203719 33 INFO dfs.FSNamesystem: BLOCK* NameSystem.addStoredBlock: blockMap updated: 10.250.6.214:50010 is added to blk_-6240913313403504862 size 67108864
11959	081109 203719 33 INFO dfs.FSNamesystem: BLOCK* NameSystem.addStoredBlock: blockMap updated: 10.251.109.209:50010 is added to blk_-4765926974911946277 size 67108864
11960	081109 203719 33 INFO dfs.FSNamesystem: BLOCK* NameSystem.addStoredBlock: blockMap updated: 10.251.39.209:50010 is added to blk_-8341102018333037248 size 67108864
11961	081109 203719 33 INFO dfs.FSNamesystem: BLOCK* NameSystem.allocateBlock: /user/root/rand/_temporary/_task_200811092030_0001_m_000083_0/part-00083. blk_-4853591198624003599
11962	081109 203719 33 INFO dfs.FSNamesystem: BLOCK* NameSystem.allocateBlock: /user/root/rand/_temporary/_task_200811092030_0001_m_000186_0/part-00186. blk_8750997530106786888
11963	081109 203719 34 INFO dfs.FSNamesystem: BLOCK* NameSystem.addStoredBlock: blockMap updated: 10.251.66.63:50010 is added to blk_5850743196591433560 size 67108864
11964	081109 203719 34 INFO dfs.FSNamesystem: BLOCK* NameSystem.addStoredBlock: blockMap updated: 10.251.75.228:50010 is added to blk_7688023007693766011 size 67108864
11965	081109 203719 34 INFO dfs.FSNamesystem: BLOCK* NameSystem.addStoredBlock: blockMap updated: 10.251.91.159:50010 is added to blk_-4765926974911946277 size 67108864
11966	081109 203719 35 INFO dfs.FSNamesystem: BLOCK* NameSystem.addStoredBlock: blockMap updated: 10.251.107.98:50010 is added to blk_7688023007693766011 size 67108864
11967	081109 203719 35 INFO dfs.FSNamesystem: BLOCK* NameSystem.addStoredBlock: blockMap updated: 10.251.203.246:50010 is added to blk_-6240913313403504862 size 67108864
11968	081109 203719 35 INFO dfs.FSNamesystem: BLOCK* NameSystem.addStoredBlock: blockMap updated: 10.251.29.239:50010 is added to blk_5850743196591433560 size 67108864
11969	081109 203719 35 INFO dfs.FSNamesystem: BLOCK* NameSystem.addStoredBlock: blockMap updated: 10.251.31.85:50010 is added to blk_-8341102018333037248 size 67108864
11970	081109 203719 35 INFO dfs.FSNamesystem: BLOCK* NameSystem.addStoredBlock: blockMap updated: 10.251.90.134:50010 is added to blk_-2223743786532653404 size 67108864
11971	081109 203719 35 INFO dfs.FSNamesystem: BLOCK* NameSystem.allocateBlock: /user/root/rand/_temporary/_task_200811092030_0001_m_000211_0/part-00211. blk_-3634129476677736855
11972	081109 203720 185 INFO dfs.DataNode$PacketResponder: PacketResponder 0 for block blk_7244324659620401027 terminating
11973	081109 203720 185 INFO dfs.DataNode$PacketResponder: Received block blk_7244324659620401027 of size 67108864 from /10.251.199.86
11974	081109 203720 193 INFO dfs.DataNode$PacketResponder: PacketResponder 1 for block blk_1756874515302969268 terminating
11975	081109 203720 193 INFO dfs.DataNode$PacketResponder: Received block blk_1756874515302969268 of size 67108864 from /10.251.37.240
11976	081109 203720 194 INFO dfs.DataNode$PacketResponder: PacketResponder 2 for block blk_7244324659620401027 terminating
11977	081109 203720 194 INFO dfs.DataNode$PacketResponder: Received block blk_7244324659620401027 of size 67108864 from /10.250.7.230
11978	081109 203720 197 INFO dfs.DataNode$PacketResponder: PacketResponder 0 for block blk_8716244237763720958 terminating
11979	081109 203720 197 INFO dfs.DataNode$PacketResponder: PacketResponder 1 for block blk_7244324659620401027 terminating
11980	081109 203720 197 INFO dfs.DataNode$PacketResponder: PacketResponder 2 for block blk_-3060996491652485702 terminating
11981	081109 203720 197 INFO dfs.DataNode$PacketResponder: Received block blk_-3060996491652485702 of size 67108864 from /10.250.11.53
11982	081109 203720 197 INFO dfs.DataNode$PacketResponder: Received block blk_7244324659620401027 of size 67108864 from /10.250.7.230
11983	081109 203720 197 INFO dfs.DataNode$PacketResponder: Received block blk_8716244237763720958 of size 67108864 from /10.251.195.70
11984	081109 203720 198 INFO dfs.DataNode$PacketResponder: PacketResponder 2 for block blk_8716244237763720958 terminating
11985	081109 203720 198 INFO dfs.DataNode$PacketResponder: Received block blk_8716244237763720958 of size 67108864 from /10.251.121.224
11986	081109 203720 200 INFO dfs.DataNode$PacketResponder: PacketResponder 0 for block blk_-6946479245250719763 terminating
11987	081109 203720 200 INFO dfs.DataNode$PacketResponder: PacketResponder 1 for block blk_-3060996491652485702 terminating
11988	081109 203720 200 INFO dfs.DataNode$PacketResponder: Received block blk_-3060996491652485702 of size 67108864 from /10.250.11.53
11989	081109 203720 200 INFO dfs.DataNode$PacketResponder: Received block blk_-6946479245250719763 of size 67108864 from /10.251.71.240
11990	081109 203720 202 INFO dfs.DataNode$PacketResponder: PacketResponder 2 for block blk_1756874515302969268 terminating
11991	081109 203720 202 INFO dfs.DataNode$PacketResponder: Received block blk_1756874515302969268 of size 67108864 from /10.251.37.240
11992	081109 203720 203 INFO dfs.DataNode$PacketResponder: PacketResponder 0 for block blk_-3060996491652485702 terminating
11993	081109 203720 203 INFO dfs.DataNode$PacketResponder: PacketResponder 1 for block blk_-1104018361361325945 terminating
11994	081109 203720 203 INFO dfs.DataNode$PacketResponder: Received block blk_-1104018361361325945 of size 67108864 from /10.251.38.53
11995	081109 203720 203 INFO dfs.DataNode$PacketResponder: Received block blk_-3060996491652485702 of size 67108864 from /10.251.89.155
11996	081109 203720 209 INFO dfs.DataNode$PacketResponder: PacketResponder 0 for block blk_-1104018361361325945 terminating
11997	081109 203720 209 INFO dfs.DataNode$PacketResponder: PacketResponder 2 for block blk_-1104018361361325945 terminating
11998	081109 203720 209 INFO dfs.DataNode$PacketResponder: Received block blk_-1104018361361325945 of size 67108864 from /10.251.38.53
11999	081109 203720 209 INFO dfs.DataNode$PacketResponder: Received block blk_-1104018361361325945 of size 67108864 from /10.251.66.3
12000	081109 203720 214 INFO dfs.DataNode$DataXceiver: Receiving block blk_-3066395560806105042 src: /10.250.7.230:47053 dest: /10.250.7.230:50010
12001	081109 203720 214 INFO dfs.DataNode$PacketResponder: PacketResponder 1 for block blk_-6946479245250719763 terminating
12002	081109 203720 214 INFO dfs.DataNode$PacketResponder: Received block blk_-6946479245250719763 of size 67108864 from /10.251.90.81
12003	081109 203720 216 INFO dfs.DataNode$DataXceiver: Receiving block blk_7781969598240387068 src: /10.251.110.8:51600 dest: /10.251.110.8:50010
12004	081109 203720 218 INFO dfs.DataNode$DataXceiver: Receiving block blk_-4853591198624003599 src: /10.251.214.175:53078 dest: /10.251.214.175:50010
12005	081109 203720 218 INFO dfs.DataNode$DataXceiver: Receiving block blk_-8841946190908468736 src: /10.251.91.159:50290 dest: /10.251.91.159:50010
12006	081109 203720 219 INFO dfs.DataNode$DataXceiver: Receiving block blk_-6064387680059666120 src: /10.250.11.53:34670 dest: /10.250.11.53:50010
12007	081109 203720 220 INFO dfs.DataNode$DataXceiver: Receiving block blk_-3066395560806105042 src: /10.250.7.230:40373 dest: /10.250.7.230:50010
12008	081109 203720 221 INFO dfs.DataNode$DataXceiver: Receiving block blk_-3634129476677736855 src: /10.251.214.18:49096 dest: /10.251.214.18:50010
12009	081109 203720 222 INFO dfs.DataNode$DataXceiver: Receiving block blk_8436884996754537406 src: /10.251.121.224:40285 dest: /10.251.121.224:50010
12010	081109 203720 222 INFO dfs.DataNode$DataXceiver: Receiving block blk_8750997530106786888 src: /10.251.194.245:45585 dest: /10.251.194.245:50010
12011	081109 203720 224 INFO dfs.DataNode$DataXceiver: Receiving block blk_8436884996754537406 src: /10.251.121.224:50319 dest: /10.251.121.224:50010
12012	081109 203720 225 INFO dfs.DataNode$DataXceiver: Receiving block blk_-6064387680059666120 src: /10.250.11.53:37758 dest: /10.250.11.53:50010
12013	081109 203720 227 INFO dfs.DataNode$DataXceiver: Receiving block blk_259221690676619372 src: /10.251.193.224:49967 dest: /10.251.193.224:50010
12014	081109 203720 231 INFO dfs.DataNode$DataXceiver: Receiving block blk_-8841946190908468736 src: /10.251.42.191:57245 dest: /10.251.42.191:50010
12015	081109 203720 248 INFO dfs.DataNode$DataXceiver: Receiving block blk_-6541926024237959879 src: /10.251.90.239:36584 dest: /10.251.90.239:50010
12016	081109 203720 250 INFO dfs.DataNode$DataXceiver: Receiving block blk_-4940431983319536262 src: /10.251.202.134:47218 dest: /10.251.202.134:50010
12017	081109 203720 26 INFO dfs.FSNamesystem: BLOCK* NameSystem.addStoredBlock: blockMap updated: 10.250.7.96:50010 is added to blk_6774601527177062062 size 67108864
12018	081109 203720 26 INFO dfs.FSNamesystem: BLOCK* NameSystem.addStoredBlock: blockMap updated: 10.251.195.70:50010 is added to blk_8716244237763720958 size 67108864
12019	081109 203720 26 INFO dfs.FSNamesystem: BLOCK* NameSystem.addStoredBlock: blockMap updated: 10.251.199.86:50010 is added to blk_7244324659620401027 size 67108864
12020	081109 203720 26 INFO dfs.FSNamesystem: BLOCK* NameSystem.addStoredBlock: blockMap updated: 10.251.42.207:50010 is added to blk_-6946479245250719763 size 67108864
12021	081109 203720 26 INFO dfs.FSNamesystem: BLOCK* NameSystem.addStoredBlock: blockMap updated: 10.251.91.159:50010 is added to blk_6774601527177062062 size 67108864
12022	081109 203720 27 INFO dfs.FSNamesystem: BLOCK* NameSystem.addStoredBlock: blockMap updated: 10.250.7.230:50010 is added to blk_7244324659620401027 size 67108864
12023	081109 203720 27 INFO dfs.FSNamesystem: BLOCK* NameSystem.addStoredBlock: blockMap updated: 10.251.215.70:50010 is added to blk_6774601527177062062 size 67108864
12024	081109 203720 27 INFO dfs.FSNamesystem: BLOCK* NameSystem.addStoredBlock: blockMap updated: 10.251.43.21:50010 is added to blk_7244324659620401027 size 67108864
12025	081109 203720 27 INFO dfs.FSNamesystem: BLOCK* NameSystem.addStoredBlock: blockMap updated: 10.251.70.112:50010 is added to blk_1756874515302969268 size 67108864
12026	081109 203720 28 INFO dfs.FSNamesystem: BLOCK* NameSystem.addStoredBlock: blockMap updated: 10.251.121.224:50010 is added to blk_8716244237763720958 size 67108864
12027	081109 203720 28 INFO dfs.FSNamesystem: BLOCK* NameSystem.addStoredBlock: blockMap updated: 10.251.71.240:50010 is added to blk_-6946479245250719763 size 67108864
12028	081109 203720 28 INFO dfs.FSNamesystem: BLOCK* NameSystem.allocateBlock: /user/root/rand/_temporary/_task_200811092030_0001_m_000346_0/part-00346. blk_-6064387680059666120
12029	081109 203720 28 INFO dfs.FSNamesystem: BLOCK* NameSystem.allocateBlock: /user/root/rand/_temporary/_task_200811092030_0001_m_000399_0/part-00399. blk_-3066395560806105042
12030	081109 203720 30 INFO dfs.FSNamesystem: BLOCK* NameSystem.addStoredBlock: blockMap updated: 10.251.123.1:50010 is added to blk_8716244237763720958 size 67108864
12031	081109 203720 30 INFO dfs.FSNamesystem: BLOCK* NameSystem.addStoredBlock: blockMap updated: 10.251.89.155:50010 is added to blk_-3060996491652485702 size 67108864
12032	081109 203720 31 INFO dfs.FSNamesystem: BLOCK* NameSystem.addStoredBlock: blockMap updated: 10.251.110.8:50010 is added to blk_-3060996491652485702 size 67108864
12033	081109 203720 32 INFO dfs.FSNamesystem: BLOCK* NameSystem.addStoredBlock: blockMap updated: 10.250.11.53:50010 is added to blk_-3060996491652485702 size 67108864
12034	081109 203720 32 INFO dfs.FSNamesystem: BLOCK* NameSystem.addStoredBlock: blockMap updated: 10.250.6.4:50010 is added to blk_-1104018361361325945 size 67108864
12035	081109 203720 32 INFO dfs.FSNamesystem: BLOCK* NameSystem.allocateBlock: /user/root/rand/_temporary/_task_200811092030_0001_m_000036_0/part-00036. blk_-2236131320508581157
12036	081109 203720 32 INFO dfs.FSNamesystem: BLOCK* NameSystem.allocateBlock: /user/root/rand/_temporary/_task_200811092030_0001_m_000367_0/part-00367. blk_8436884996754537406
12037	081109 203720 33 INFO dfs.FSNamesystem: BLOCK* NameSystem.addStoredBlock: blockMap updated: 10.251.107.50:50010 is added to blk_-158622295347645566 size 67108864
12038	081109 203720 33 INFO dfs.FSNamesystem: BLOCK* NameSystem.addStoredBlock: blockMap updated: 10.251.37.240:50010 is added to blk_1756874515302969268 size 67108864
12039	081109 203720 34 INFO dfs.FSNamesystem: BLOCK* NameSystem.addStoredBlock: blockMap updated: 10.250.11.194:50010 is added to blk_-3883105563868090428 size 67108864
12040	081109 203720 34 INFO dfs.FSNamesystem: BLOCK* NameSystem.allocateBlock: /user/root/rand/_temporary/_task_200811092030_0001_m_000177_0/part-00177. blk_6637461720665118296
12041	081109 203720 35 INFO dfs.FSNamesystem: BLOCK* NameSystem.addStoredBlock: blockMap updated: 10.250.17.177:50010 is added to blk_-158622295347645566 size 67108864
12042	081109 203720 35 INFO dfs.FSNamesystem: BLOCK* NameSystem.addStoredBlock: blockMap updated: 10.251.66.3:50010 is added to blk_-1104018361361325945 size 67108864
12043	081109 203721 186 INFO dfs.DataNode$PacketResponder: PacketResponder 0 for block blk_-6689614308409336057 terminating
12044	081109 203721 186 INFO dfs.DataNode$PacketResponder: Received block blk_-6689614308409336057 of size 67108864 from /10.250.7.96
12045	081109 203721 188 INFO dfs.DataNode$PacketResponder: PacketResponder 0 for block blk_-4969235823780020247 terminating
12046	081109 203721 188 INFO dfs.DataNode$PacketResponder: PacketResponder 1 for block blk_8838373295078992689 terminating
12047	081109 203721 188 INFO dfs.DataNode$PacketResponder: Received block blk_-4969235823780020247 of size 67108864 from /10.250.7.96
12048	081109 203721 188 INFO dfs.DataNode$PacketResponder: Received block blk_8838373295078992689 of size 67108864 from /10.251.30.179
12049	081109 203721 189 INFO dfs.DataNode$PacketResponder: PacketResponder 0 for block blk_-4819161109439334498 terminating
12050	081109 203721 189 INFO dfs.DataNode$PacketResponder: Received block blk_-4819161109439334498 of size 67108864 from /10.251.91.229
12051	081109 203721 190 INFO dfs.DataNode$PacketResponder: PacketResponder 1 for block blk_8105610287489451552 terminating
12052	081109 203721 190 INFO dfs.DataNode$PacketResponder: Received block blk_8105610287489451552 of size 67108864 from /10.251.202.209
12053	081109 203721 191 INFO dfs.DataNode$PacketResponder: PacketResponder 0 for block blk_255245908999733348 terminating
12054	081109 203721 191 INFO dfs.DataNode$PacketResponder: Received block blk_255245908999733348 of size 67108864 from /10.250.5.161
12055	081109 203721 192 INFO dfs.DataNode$PacketResponder: PacketResponder 0 for block blk_8105610287489451552 terminating
12056	081109 203721 192 INFO dfs.DataNode$PacketResponder: PacketResponder 2 for block blk_8105610287489451552 terminating
12057	081109 203721 192 INFO dfs.DataNode$PacketResponder: Received block blk_8105610287489451552 of size 67108864 from /10.250.10.100
12058	081109 203721 192 INFO dfs.DataNode$PacketResponder: Received block blk_8105610287489451552 of size 67108864 from /10.251.202.209
12059	081109 203721 193 INFO dfs.DataNode$PacketResponder: PacketResponder 1 for block blk_-2220859835087186790 terminating
12060	081109 203721 193 INFO dfs.DataNode$PacketResponder: PacketResponder 1 for block blk_-4819161109439334498 terminating
12061	081109 203721 193 INFO dfs.DataNode$PacketResponder: PacketResponder 1 for block blk_-5570549536551886229 terminating
12062	081109 203721 193 INFO dfs.DataNode$PacketResponder: PacketResponder 1 for block blk_5853900137316619503 terminating
12063	081109 203721 193 INFO dfs.DataNode$PacketResponder: PacketResponder 2 for block blk_8838373295078992689 terminating
12064	081109 203721 193 INFO dfs.DataNode$PacketResponder: Received block blk_-2220859835087186790 of size 67108864 from /10.251.202.181
12065	081109 203721 193 INFO dfs.DataNode$PacketResponder: Received block blk_-4819161109439334498 of size 67108864 from /10.251.126.255
12066	081109 203721 193 INFO dfs.DataNode$PacketResponder: Received block blk_-5570549536551886229 of size 67108864 from /10.251.25.237
12067	081109 203721 193 INFO dfs.DataNode$PacketResponder: Received block blk_5853900137316619503 of size 67108864 from /10.251.107.196
12068	081109 203721 193 INFO dfs.DataNode$PacketResponder: Received block blk_8838373295078992689 of size 67108864 from /10.251.30.179
12069	081109 203721 194 INFO dfs.DataNode$PacketResponder: PacketResponder 1 for block blk_-4969235823780020247 terminating
12070	081109 203721 194 INFO dfs.DataNode$PacketResponder: PacketResponder 2 for block blk_-6689614308409336057 terminating
12071	081109 203721 194 INFO dfs.DataNode$PacketResponder: Received block blk_-4969235823780020247 of size 67108864 from /10.251.29.239
12072	081109 203721 194 INFO dfs.DataNode$PacketResponder: Received block blk_-6689614308409336057 of size 67108864 from /10.251.106.10
12073	081109 203721 195 INFO dfs.DataNode$PacketResponder: PacketResponder 0 for block blk_8838373295078992689 terminating
12074	081109 203721 195 INFO dfs.DataNode$PacketResponder: Received block blk_8838373295078992689 of size 67108864 from /10.251.127.243
12075	081109 203721 196 INFO dfs.DataNode$PacketResponder: PacketResponder 0 for block blk_-5570549536551886229 terminating
12076	081109 203721 196 INFO dfs.DataNode$PacketResponder: PacketResponder 1 for block blk_-6689614308409336057 terminating
12077	081109 203721 196 INFO dfs.DataNode$PacketResponder: PacketResponder 2 for block blk_-2220859835087186790 terminating
12078	081109 203721 196 INFO dfs.DataNode$PacketResponder: Received block blk_-2220859835087186790 of size 67108864 from /10.251.202.181
12079	081109 203721 196 INFO dfs.DataNode$PacketResponder: Received block blk_-5570549536551886229 of size 67108864 from /10.250.10.223
12080	081109 203721 196 INFO dfs.DataNode$PacketResponder: Received block blk_-6689614308409336057 of size 67108864 from /10.251.106.10
12081	081109 203721 197 INFO dfs.DataNode$PacketResponder: PacketResponder 0 for block blk_-6003485234128709065 terminating
12082	081109 203721 197 INFO dfs.DataNode$PacketResponder: PacketResponder 2 for block blk_5853900137316619503 terminating
12083	081109 203721 197 INFO dfs.DataNode$PacketResponder: Received block blk_5853900137316619503 of size 67108864 from /10.251.107.196
12084	081109 203721 197 INFO dfs.DataNode$PacketResponder: Received block blk_-6003485234128709065 of size 67108864 from /10.251.123.132
12085	081109 203721 198 INFO dfs.DataNode$PacketResponder: PacketResponder 0 for block blk_-2220859835087186790 terminating
12086	081109 203721 198 INFO dfs.DataNode$PacketResponder: PacketResponder 0 for block blk_251253676484915451 terminating
12087	081109 203721 198 INFO dfs.DataNode$PacketResponder: PacketResponder 1 for block blk_255245908999733348 terminating
12088	081109 203721 198 INFO dfs.DataNode$PacketResponder: PacketResponder 2 for block blk_-6946479245250719763 terminating
12089	081109 203721 198 INFO dfs.DataNode$PacketResponder: Received block blk_-2220859835087186790 of size 67108864 from /10.251.215.192
12090	081109 203721 198 INFO dfs.DataNode$PacketResponder: Received block blk_251253676484915451 of size 67108864 from /10.251.70.5
12091	081109 203721 198 INFO dfs.DataNode$PacketResponder: Received block blk_255245908999733348 of size 67108864 from /10.251.122.65
12092	081109 203721 198 INFO dfs.DataNode$PacketResponder: Received block blk_-6946479245250719763 of size 67108864 from /10.251.90.81
12093	081109 203721 199 INFO dfs.DataNode$PacketResponder: PacketResponder 0 for block blk_8834798433764753771 terminating
12094	081109 203721 199 INFO dfs.DataNode$PacketResponder: Received block blk_8834798433764753771 of size 67108864 from /10.251.43.147
12095	081109 203721 200 INFO dfs.DataNode$PacketResponder: PacketResponder 1 for block blk_8834798433764753771 terminating
12096	081109 203721 200 INFO dfs.DataNode$PacketResponder: PacketResponder 2 for block blk_255245908999733348 terminating
12097	081109 203721 200 INFO dfs.DataNode$PacketResponder: Received block blk_255245908999733348 of size 67108864 from /10.251.122.65
12098	081109 203721 200 INFO dfs.DataNode$PacketResponder: Received block blk_8834798433764753771 of size 67108864 from /10.250.11.100
12099	081109 203721 201 INFO dfs.DataNode$PacketResponder: PacketResponder 2 for block blk_-5570549536551886229 terminating
12100	081109 203721 201 INFO dfs.DataNode$PacketResponder: Received block blk_-5570549536551886229 of size 67108864 from /10.251.25.237
12101	081109 203721 202 INFO dfs.DataNode$PacketResponder: PacketResponder 1 for block blk_-6003485234128709065 terminating
12102	081109 203721 202 INFO dfs.DataNode$PacketResponder: Received block blk_-6003485234128709065 of size 67108864 from /10.251.214.67
12103	081109 203721 207 INFO dfs.DataNode$PacketResponder: PacketResponder 2 for block blk_-6003485234128709065 terminating
12104	081109 203721 207 INFO dfs.DataNode$PacketResponder: Received block blk_-6003485234128709065 of size 67108864 from /10.251.214.67
12105	081109 203721 208 INFO dfs.DataNode$PacketResponder: PacketResponder 0 for block blk_-4385381166285131937 terminating
12106	081109 203721 208 INFO dfs.DataNode$PacketResponder: Received block blk_-4385381166285131937 of size 67108864 from /10.251.73.188
12107	081109 203721 210 INFO dfs.DataNode$DataXceiver: Receiving block blk_-4853591198624003599 src: /10.251.70.211:50306 dest: /10.251.70.211:50010
12108	081109 203721 210 INFO dfs.DataNode$DataXceiver: Receiving block blk_-5747789193163827795 src: /10.251.90.81:46816 dest: /10.251.90.81:50010
12109	081109 203721 211 INFO dfs.DataNode$DataXceiver: Receiving block blk_-7261016699776316248 src: /10.251.106.10:53911 dest: /10.251.106.10:50010
12110	081109 203721 213 INFO dfs.DataNode$DataXceiver: Receiving block blk_6637461720665118296 src: /10.251.37.240:53049 dest: /10.251.37.240:50010
12111	081109 203721 215 INFO dfs.DataNode$DataXceiver: Receiving block blk_-5747789193163827795 src: /10.251.90.81:43820 dest: /10.251.90.81:50010
12112	081109 203721 215 INFO dfs.DataNode$DataXceiver: Receiving block blk_6048903559150060297 src: /10.251.122.65:50639 dest: /10.251.122.65:50010
12113	081109 203721 216 INFO dfs.DataNode$DataXceiver: Receiving block blk_512363147112021223 src: /10.251.194.245:50654 dest: /10.251.194.245:50010
12114	081109 203721 218 INFO dfs.DataNode$DataXceiver: Receiving block blk_-5747789193163827795 src: /10.251.111.37:52066 dest: /10.251.111.37:50010
12115	081109 203721 218 INFO dfs.DataNode$DataXceiver: Receiving block blk_-8564887612605221745 src: /10.251.195.70:33071 dest: /10.251.195.70:50010
12116	081109 203721 219 INFO dfs.DataNode$DataXceiver: Receiving block blk_718923348939574516 src: /10.251.198.33:50772 dest: /10.251.198.33:50010
12117	081109 203721 219 INFO dfs.DataNode$DataXceiver: Receiving block blk_-8564887612605221745 src: /10.251.38.53:36592 dest: /10.251.38.53:50010
12118	081109 203721 219 INFO dfs.DataNode$DataXceiver: Receiving block blk_9139736021300310875 src: /10.251.25.237:60426 dest: /10.251.25.237:50010
12119	081109 203721 221 INFO dfs.DataNode$DataXceiver: Receiving block blk_718923348939574516 src: /10.251.202.209:39666 dest: /10.251.202.209:50010
12120	081109 203721 221 INFO dfs.DataNode$DataXceiver: Receiving block blk_-7261016699776316248 src: /10.250.7.32:60675 dest: /10.250.7.32:50010
12121	081109 203721 222 INFO dfs.DataNode$DataXceiver: Receiving block blk_5360535177585557321 src: /10.251.126.227:58908 dest: /10.251.126.227:50010
12122	081109 203721 222 INFO dfs.DataNode$DataXceiver: Receiving block blk_-7261016699776316248 src: /10.251.106.10:34461 dest: /10.251.106.10:50010
12123	081109 203721 222 INFO dfs.DataNode$DataXceiver: Receiving block blk_-8564887612605221745 src: /10.251.38.53:37902 dest: /10.251.38.53:50010
12124	081109 203721 223 INFO dfs.DataNode$DataXceiver: Receiving block blk_-3390831806322240721 src: /10.251.107.196:47890 dest: /10.251.107.196:50010
12125	081109 203721 223 INFO dfs.DataNode$DataXceiver: Receiving block blk_9139736021300310875 src: /10.251.25.237:47013 dest: /10.251.25.237:50010
12126	081109 203721 224 INFO dfs.DataNode$DataXceiver: Receiving block blk_718923348939574516 src: /10.251.202.209:41409 dest: /10.251.202.209:50010
12127	081109 203721 225 INFO dfs.DataNode$DataXceiver: Receiving block blk_6048903559150060297 src: /10.251.122.65:55149 dest: /10.251.122.65:50010
12128	081109 203721 230 INFO dfs.DataNode$DataXceiver: Receiving block blk_6637461720665118296 src: /10.251.37.240:46305 dest: /10.251.37.240:50010
12129	081109 203721 236 INFO dfs.DataNode$DataXceiver: Receiving block blk_-7499677793330381206 src: /10.251.89.155:54007 dest: /10.251.89.155:50010
12130	081109 203721 237 INFO dfs.DataNode$DataXceiver: Receiving block blk_-1949968870137262354 src: /10.251.70.37:50404 dest: /10.251.70.37:50010
12131	081109 203721 243 INFO dfs.DataNode$DataXceiver: Receiving block blk_9139736021300310875 src: /10.251.214.175:50120 dest: /10.251.214.175:50010
12132	081109 203721 264 INFO dfs.DataNode$PacketResponder: PacketResponder 0 for block blk_5853900137316619503 terminating
12133	081109 203721 264 INFO dfs.DataNode$PacketResponder: Received block blk_5853900137316619503 of size 67108864 from /10.251.70.211
12134	081109 203721 26 INFO dfs.FSNamesystem: BLOCK* NameSystem.addStoredBlock: blockMap updated: 10.250.10.213:50010 is added to blk_8838373295078992689 size 67108864
12135	081109 203721 26 INFO dfs.FSNamesystem: BLOCK* NameSystem.addStoredBlock: blockMap updated: 10.250.10.223:50010 is added to blk_-5570549536551886229 size 67108864
12136	081109 203721 26 INFO dfs.FSNamesystem: BLOCK* NameSystem.addStoredBlock: blockMap updated: 10.251.203.80:50010 is added to blk_251253676484915451 size 67108864
12137	081109 203721 26 INFO dfs.FSNamesystem: BLOCK* NameSystem.allocateBlock: /user/root/rand/_temporary/_task_200811092030_0001_m_000203_0/part-00203. blk_-8564887612605221745
12138	081109 203721 27 INFO dfs.FSNamesystem: BLOCK* NameSystem.addStoredBlock: blockMap updated: 10.250.11.100:50010 is added to blk_8834798433764753771 size 67108864
12139	081109 203721 27 INFO dfs.FSNamesystem: BLOCK* NameSystem.addStoredBlock: blockMap updated: 10.250.5.161:50010 is added to blk_255245908999733348 size 67108864
12140	081109 203721 27 INFO dfs.FSNamesystem: BLOCK* NameSystem.addStoredBlock: blockMap updated: 10.251.107.196:50010 is added to blk_5853900137316619503 size 67108864
12141	081109 203721 27 INFO dfs.FSNamesystem: BLOCK* NameSystem.addStoredBlock: blockMap updated: 10.251.122.65:50010 is added to blk_255245908999733348 size 67108864
12142	081109 203721 27 INFO dfs.FSNamesystem: BLOCK* NameSystem.addStoredBlock: blockMap updated: 10.251.123.20:50010 is added to blk_-6689614308409336057 size 67108864
12143	081109 203721 27 INFO dfs.FSNamesystem: BLOCK* NameSystem.addStoredBlock: blockMap updated: 10.251.127.243:50010 is added to blk_8838373295078992689 size 67108864
12144	081109 203721 28 INFO dfs.FSNamesystem: BLOCK* NameSystem.addStoredBlock: blockMap updated: 10.250.13.240:50010 is added to blk_-2220859835087186790 size 67108864
12145	081109 203721 28 INFO dfs.FSNamesystem: BLOCK* NameSystem.addStoredBlock: blockMap updated: 10.250.7.96:50010 is added to blk_-6689614308409336057 size 67108864
12146	081109 203721 28 INFO dfs.FSNamesystem: BLOCK* NameSystem.addStoredBlock: blockMap updated: 10.251.106.10:50010 is added to blk_-6689614308409336057 size 67108864
12147	081109 203721 28 INFO dfs.FSNamesystem: BLOCK* NameSystem.addStoredBlock: blockMap updated: 10.251.90.81:50010 is added to blk_-4969235823780020247 size 67108864
12148	081109 203721 28 INFO dfs.FSNamesystem: BLOCK* NameSystem.addStoredBlock: blockMap updated: 10.251.91.229:50010 is added to blk_-4819161109439334498 size 67108864
12149	081109 203721 28 INFO dfs.FSNamesystem: BLOCK* NameSystem.allocateBlock: /user/root/rand/_temporary/_task_200811092030_0001_m_000313_0/part-00313. blk_-7261016699776316248
12150	081109 203721 292 INFO dfs.DataNode$DataXceiver: Receiving block blk_7781969598240387068 src: /10.250.7.146:53148 dest: /10.250.7.146:50010
12151	081109 203721 29 INFO dfs.FSNamesystem: BLOCK* NameSystem.addStoredBlock: blockMap updated: 10.251.107.98:50010 is added to blk_-4819161109439334498 size 67108864
12152	081109 203721 29 INFO dfs.FSNamesystem: BLOCK* NameSystem.addStoredBlock: blockMap updated: 10.251.197.226:50010 is added to blk_5853900137316619503 size 67108864
12153	081109 203721 29 INFO dfs.FSNamesystem: BLOCK* NameSystem.addStoredBlock: blockMap updated: 10.251.202.181:50010 is added to blk_-2220859835087186790 size 67108864
12154	081109 203721 29 INFO dfs.FSNamesystem: BLOCK* NameSystem.addStoredBlock: blockMap updated: 10.251.215.192:50010 is added to blk_-2220859835087186790 size 67108864
12155	081109 203721 29 INFO dfs.FSNamesystem: BLOCK* NameSystem.allocateBlock: /user/root/rand/_temporary/_task_200811092030_0001_m_000170_0/part-00170. blk_718923348939574516
12156	081109 203721 30 INFO dfs.FSNamesystem: BLOCK* NameSystem.addStoredBlock: blockMap updated: 10.251.123.132:50010 is added to blk_-6003485234128709065 size 67108864
12157	081109 203721 30 INFO dfs.FSNamesystem: BLOCK* NameSystem.addStoredBlock: blockMap updated: 10.251.43.147:50010 is added to blk_8834798433764753771 size 67108864
12158	081109 203721 30 INFO dfs.FSNamesystem: BLOCK* NameSystem.addStoredBlock: blockMap updated: 10.251.70.211:50010 is added to blk_5853900137316619503 size 67108864
12159	081109 203721 30 INFO dfs.FSNamesystem: BLOCK* NameSystem.allocateBlock: /user/root/rand/_temporary/_task_200811092030_0001_m_000310_0/part-00310. blk_6048903559150060297
12160	081109 203721 30 INFO dfs.FSNamesystem: BLOCK* NameSystem.allocateBlock: /user/root/rand/_temporary/_task_200811092030_0001_m_000321_0/part-00321. blk_-5747789193163827795
12161	081109 203721 31 INFO dfs.FSNamesystem: BLOCK* NameSystem.addStoredBlock: blockMap updated: 10.251.121.224:50010 is added to blk_8105610287489451552 size 67108864
12162	081109 203721 31 INFO dfs.FSNamesystem: BLOCK* NameSystem.addStoredBlock: blockMap updated: 10.251.195.52:50010 is added to blk_255245908999733348 size 67108864
12163	081109 203721 31 INFO dfs.FSNamesystem: BLOCK* NameSystem.allocateBlock: /user/root/rand/_temporary/_task_200811092030_0001_m_000160_0/part-00160. blk_9139736021300310875
12164	081109 203721 32 INFO dfs.FSNamesystem: BLOCK* NameSystem.addStoredBlock: blockMap updated: 10.251.90.64:50010 is added to blk_-4385381166285131937 size 67108864
12165	081109 203721 32 INFO dfs.FSNamesystem: BLOCK* NameSystem.addStoredBlock: blockMap updated: 10.251.90.81:50010 is added to blk_-6946479245250719763 size 67108864
12166	081109 203721 33 INFO dfs.FSNamesystem: BLOCK* NameSystem.addStoredBlock: blockMap updated: 10.250.10.100:50010 is added to blk_8105610287489451552 size 67108864
12167	081109 203721 33 INFO dfs.FSNamesystem: BLOCK* NameSystem.addStoredBlock: blockMap updated: 10.251.195.33:50010 is added to blk_-5570549536551886229 size 67108864
12168	081109 203721 33 INFO dfs.FSNamesystem: BLOCK* NameSystem.addStoredBlock: blockMap updated: 10.251.195.33:50010 is added to blk_8834798433764753771 size 67108864
12169	081109 203721 33 INFO dfs.FSNamesystem: BLOCK* NameSystem.addStoredBlock: blockMap updated: 10.251.202.209:50010 is added to blk_8105610287489451552 size 67108864
12170	081109 203721 33 INFO dfs.FSNamesystem: BLOCK* NameSystem.addStoredBlock: blockMap updated: 10.251.30.85:50010 is added to blk_-6003485234128709065 size 67108864
12171	081109 203721 33 INFO dfs.FSNamesystem: BLOCK* NameSystem.addStoredBlock: blockMap updated: 10.251.38.53:50010 is added to blk_-1104018361361325945 size 67108864
12172	081109 203721 33 INFO dfs.FSNamesystem: BLOCK* NameSystem.allocateBlock: /user/root/rand/_temporary/_task_200811092030_0001_m_000108_0/part-00108. blk_-3390831806322240721
12173	081109 203721 33 INFO dfs.FSNamesystem: BLOCK* NameSystem.allocateBlock: /user/root/rand/_temporary/_task_200811092030_0001_m_000228_0/part-00228. blk_6065529398204438451
12174	081109 203721 34 INFO dfs.FSNamesystem: BLOCK* NameSystem.addStoredBlock: blockMap updated: 10.251.30.179:50010 is added to blk_8838373295078992689 size 67108864
12175	081109 203721 35 INFO dfs.FSNamesystem: BLOCK* NameSystem.addStoredBlock: blockMap updated: 10.250.7.96:50010 is added to blk_-4969235823780020247 size 67108864
12176	081109 203721 35 INFO dfs.FSNamesystem: BLOCK* NameSystem.addStoredBlock: blockMap updated: 10.251.25.237:50010 is added to blk_-5570549536551886229 size 67108864
12177	081109 203722 13 INFO dfs.DataBlockScanner: Verification succeeded for blk_-568941302732430172
12178	081109 203722 183 INFO dfs.DataNode$PacketResponder: PacketResponder 2 for block blk_8751448391372717220 terminating
12179	081109 203722 183 INFO dfs.DataNode$PacketResponder: Received block blk_8751448391372717220 of size 67108864 from /10.251.121.224
12180	081109 203722 185 INFO dfs.DataNode$PacketResponder: PacketResponder 2 for block blk_-4969235823780020247 terminating
12181	081109 203722 185 INFO dfs.DataNode$PacketResponder: Received block blk_-4969235823780020247 of size 67108864 from /10.251.29.239
12182	081109 203722 186 INFO dfs.DataNode$PacketResponder: PacketResponder 1 for block blk_8751448391372717220 terminating
12183	081109 203722 186 INFO dfs.DataNode$PacketResponder: Received block blk_8751448391372717220 of size 67108864 from /10.251.121.224
12184	081109 203722 187 INFO dfs.DataNode$PacketResponder: PacketResponder 2 for block blk_251253676484915451 terminating
12185	081109 203722 187 INFO dfs.DataNode$PacketResponder: Received block blk_251253676484915451 of size 67108864 from /10.251.125.237
12186	081109 203722 188 INFO dfs.DataNode$PacketResponder: PacketResponder 1 for block blk_251253676484915451 terminating
12187	081109 203722 188 INFO dfs.DataNode$PacketResponder: Received block blk_251253676484915451 of size 67108864 from /10.251.125.237
12188	081109 203722 192 INFO dfs.DataNode$PacketResponder: PacketResponder 0 for block blk_-6118708449788908728 terminating
12189	081109 203722 192 INFO dfs.DataNode$PacketResponder: Received block blk_-6118708449788908728 of size 67108864 from /10.251.42.9
12190	081109 203722 193 INFO dfs.DataNode$PacketResponder: PacketResponder 0 for block blk_8751448391372717220 terminating
12191	081109 203722 193 INFO dfs.DataNode$PacketResponder: PacketResponder 2 for block blk_-4819161109439334498 terminating
12192	081109 203722 193 INFO dfs.DataNode$PacketResponder: Received block blk_-4819161109439334498 of size 67108864 from /10.251.126.255
12193	081109 203722 193 INFO dfs.DataNode$PacketResponder: Received block blk_8751448391372717220 of size 67108864 from /10.251.91.229
12194	081109 203722 194 INFO dfs.DataNode$PacketResponder: PacketResponder 1 for block blk_40178224537000875 terminating
12195	081109 203722 194 INFO dfs.DataNode$PacketResponder: Received block blk_40178224537000875 of size 67108864 from /10.251.37.240
12196	081109 203722 195 INFO dfs.DataNode$PacketResponder: PacketResponder 0 for block blk_-6519654768909987052 terminating
12197	081109 203722 195 INFO dfs.DataNode$PacketResponder: Received block blk_-6519654768909987052 of size 67108864 from /10.251.202.209
12198	081109 203722 198 INFO dfs.DataNode$PacketResponder: PacketResponder 2 for block blk_-6118708449788908728 terminating
12199	081109 203722 198 INFO dfs.DataNode$PacketResponder: Received block blk_-6118708449788908728 of size 67108864 from /10.251.123.99
12200	081109 203722 199 INFO dfs.DataNode$PacketResponder: PacketResponder 1 for block blk_-6118708449788908728 terminating
12201	081109 203722 199 INFO dfs.DataNode$PacketResponder: PacketResponder 1 for block blk_-6519654768909987052 terminating
12202	081109 203722 199 INFO dfs.DataNode$PacketResponder: PacketResponder 2 for block blk_-6519654768909987052 terminating
12203	081109 203722 199 INFO dfs.DataNode$PacketResponder: Received block blk_-6118708449788908728 of size 67108864 from /10.251.123.99
12204	081109 203722 199 INFO dfs.DataNode$PacketResponder: Received block blk_-6519654768909987052 of size 67108864 from /10.251.199.150
12205	081109 203722 199 INFO dfs.DataNode$PacketResponder: Received block blk_-6519654768909987052 of size 67108864 from /10.251.199.150
12206	081109 203722 200 INFO dfs.DataNode$PacketResponder: PacketResponder 0 for block blk_-8906299271772802557 terminating
12207	081109 203722 200 INFO dfs.DataNode$PacketResponder: Received block blk_-8906299271772802557 of size 67108864 from /10.251.126.227
12208	081109 203722 201 INFO dfs.DataNode$PacketResponder: PacketResponder 0 for block blk_-5006915006478235225 terminating
12209	081109 203722 201 INFO dfs.DataNode$PacketResponder: Received block blk_-5006915006478235225 of size 67108864 from /10.250.10.6
12210	081109 203722 202 INFO dfs.DataNode$PacketResponder: PacketResponder 0 for block blk_40178224537000875 terminating
12211	081109 203722 202 INFO dfs.DataNode$PacketResponder: PacketResponder 0 for block blk_9202404868120642434 terminating
12212	081109 203722 202 INFO dfs.DataNode$PacketResponder: Received block blk_40178224537000875 of size 67108864 from /10.251.214.18
12213	081109 203722 202 INFO dfs.DataNode$PacketResponder: Received block blk_9202404868120642434 of size 67108864 from /10.251.70.211
12214	081109 203722 203 INFO dfs.DataNode$PacketResponder: PacketResponder 2 for block blk_40178224537000875 terminating
12215	081109 203722 203 INFO dfs.DataNode$PacketResponder: Received block blk_40178224537000875 of size 67108864 from /10.251.37.240
12216	081109 203722 212 INFO dfs.DataNode$DataXceiver: Receiving block blk_-21511055669303938 src: /10.251.125.237:42882 dest: /10.251.125.237:50010
12217	081109 203722 214 INFO dfs.DataNode$DataXceiver: Receiving block blk_-7720435481286742707 src: /10.251.214.67:52353 dest: /10.251.214.67:50010
12218	081109 203722 215 INFO dfs.DataNode$DataXceiver: Receiving block blk_-3390831806322240721 src: /10.251.107.196:55149 dest: /10.251.107.196:50010
12219	081109 203722 215 INFO dfs.DataNode$DataXceiver: Receiving block blk_4690761409986890576 src: /10.251.193.175:46769 dest: /10.251.193.175:50010
12220	081109 203722 215 INFO dfs.DataNode$DataXceiver: Receiving block blk_6048903559150060297 src: /10.251.197.161:56469 dest: /10.251.197.161:50010
12221	081109 203722 216 INFO dfs.DataNode$DataXceiver: Receiving block blk_3206591630924866263 src: /10.251.29.239:54259 dest: /10.251.29.239:50010
12222	081109 203722 217 INFO dfs.DataNode$DataXceiver: Receiving block blk_-1024111666072608860 src: /10.251.199.150:43663 dest: /10.251.199.150:50010
12223	081109 203722 217 INFO dfs.DataNode$DataXceiver: Receiving block blk_-3066395560806105042 src: /10.251.29.239:54084 dest: /10.251.29.239:50010
12224	081109 203722 219 INFO dfs.DataNode$DataXceiver: Receiving block blk_-7558405665651817421 src: /10.250.11.100:52423 dest: /10.250.11.100:50010
12225	081109 203722 221 INFO dfs.DataNode$DataXceiver: Receiving block blk_6065529398204438451 src: /10.251.30.179:47395 dest: /10.251.30.179:50010
12226	081109 203722 221 INFO dfs.DataNode$DataXceiver: Receiving block blk_6065529398204438451 src: /10.251.30.179:56387 dest: /10.251.30.179:50010
12227	081109 203722 221 INFO dfs.DataNode$DataXceiver: Receiving block blk_-7720435481286742707 src: /10.251.214.67:59003 dest: /10.251.214.67:50010
12228	081109 203722 222 INFO dfs.DataNode$DataXceiver: Receiving block blk_-21511055669303938 src: /10.251.75.163:50465 dest: /10.251.75.163:50010
12229	081109 203722 223 INFO dfs.DataNode$DataXceiver: Receiving block blk_-1024111666072608860 src: /10.251.199.150:40750 dest: /10.251.199.150:50010
12230	081109 203722 224 INFO dfs.DataNode$DataXceiver: Receiving block blk_-1562349907678845317 src: /10.250.7.230:58478 dest: /10.250.7.230:50010
12231	081109 203722 224 INFO dfs.DataNode$DataXceiver: Receiving block blk_6065529398204438451 src: /10.251.90.134:42725 dest: /10.251.90.134:50010
12232	081109 203722 225 INFO dfs.DataNode$DataXceiver: Receiving block blk_1079062196178133512 src: /10.250.15.67:60596 dest: /10.250.15.67:50010
12233	081109 203722 225 INFO dfs.DataNode$DataXceiver: Receiving block blk_-21511055669303938 src: /10.251.125.237:57780 dest: /10.251.125.237:50010
12234	081109 203722 225 INFO dfs.DataNode$DataXceiver: Receiving block blk_6637461720665118296 src: /10.251.195.52:43268 dest: /10.251.195.52:50010
12235	081109 203722 225 INFO dfs.DataNode$DataXceiver: Receiving block blk_-7064818026825325080 src: /10.251.121.224:50322 dest: /10.251.121.224:50010
12236	081109 203722 226 INFO dfs.DataNode$DataXceiver: Receiving block blk_1079062196178133512 src: /10.250.17.177:56593 dest: /10.250.17.177:50010
12237	081109 203722 226 INFO dfs.DataNode$DataXceiver: Receiving block blk_-3980882089409773867 src: /10.251.107.242:55616 dest: /10.251.107.242:50010
12238	081109 203722 227 INFO dfs.DataNode$DataXceiver: Receiving block blk_7409100024045179646 src: /10.251.126.255:57435 dest: /10.251.126.255:50010
12239	081109 203722 228 INFO dfs.DataNode$DataXceiver: Receiving block blk_-6518874316130635814 src: /10.251.123.99:58506 dest: /10.251.123.99:50010
12240	081109 203722 230 INFO dfs.DataNode$DataXceiver: Receiving block blk_-7720435481286742707 src: /10.251.91.84:40620 dest: /10.251.91.84:50010
12241	081109 203722 231 INFO dfs.DataNode$DataXceiver: Receiving block blk_-6853141743423548732 src: /10.251.37.240:46308 dest: /10.251.37.240:50010
12242	081109 203722 233 INFO dfs.DataNode$PacketResponder: PacketResponder 1 for block blk_-5006915006478235225 terminating
12243	081109 203722 233 INFO dfs.DataNode$PacketResponder: Received block blk_-5006915006478235225 of size 67108864 from /10.251.30.179
12244	081109 203722 26 INFO dfs.FSNamesystem: BLOCK* NameSystem.addStoredBlock: blockMap updated: 10.251.199.150:50010 is added to blk_-6519654768909987052 size 67108864
12245	081109 203722 26 INFO dfs.FSNamesystem: BLOCK* NameSystem.allocateBlock: /user/root/rand/_temporary/_task_200811092030_0001_m_000247_0/part-00247. blk_-7720435481286742707
12246	081109 203722 274 INFO dfs.DataNode$PacketResponder: PacketResponder 2 for block blk_8834798433764753771 terminating
12247	081109 203722 274 INFO dfs.DataNode$PacketResponder: Received block blk_8834798433764753771 of size 67108864 from /10.250.11.100
12248	081109 203722 27 INFO dfs.FSNamesystem: BLOCK* NameSystem.allocateBlock: /user/root/rand/_temporary/_task_200811092030_0001_m_000266_0/part-00266. blk_-8717408177813991125
12249	081109 203722 27 INFO dfs.FSNamesystem: BLOCK* NameSystem.allocateBlock: /user/root/rand/_temporary/_task_200811092030_0001_m_000376_0/part-00376. blk_-1024111666072608860
12250	081109 203722 28 INFO dfs.FSNamesystem: BLOCK* NameSystem.addStoredBlock: blockMap updated: 10.251.29.239:50010 is added to blk_-4969235823780020247 size 67108864
12251	081109 203722 28 INFO dfs.FSNamesystem: BLOCK* NameSystem.addStoredBlock: blockMap updated: 10.251.39.209:50010 is added to blk_-6118708449788908728 size 67108864
12252	081109 203722 28 INFO dfs.FSNamesystem: BLOCK* NameSystem.allocateBlock: /user/root/rand/_temporary/_task_200811092030_0001_m_000019_0/part-00019. blk_-21511055669303938
12253	081109 203722 294 INFO dfs.DataNode$DataXceiver: Receiving block blk_-7558405665651817421 src: /10.250.11.100:37407 dest: /10.250.11.100:50010
12254	081109 203722 29 INFO dfs.FSNamesystem: BLOCK* NameSystem.addStoredBlock: blockMap updated: 10.251.121.224:50010 is added to blk_8751448391372717220 size 67108864
12255	081109 203722 29 INFO dfs.FSNamesystem: BLOCK* NameSystem.addStoredBlock: blockMap updated: 10.251.123.99:50010 is added to blk_-6118708449788908728 size 67108864
12256	081109 203722 29 INFO dfs.FSNamesystem: BLOCK* NameSystem.addStoredBlock: blockMap updated: 10.251.126.255:50010 is added to blk_-4819161109439334498 size 67108864
12257	081109 203722 30 INFO dfs.FSNamesystem: BLOCK* NameSystem.allocateBlock: /user/root/rand/_temporary/_task_200811092030_0001_m_000091_0/part-00091. blk_-7064818026825325080
12258	081109 203722 30 INFO dfs.FSNamesystem: BLOCK* NameSystem.allocateBlock: /user/root/rand/_temporary/_task_200811092030_0001_m_000292_0/part-00292. blk_-6518874316130635814
12259	081109 203722 31 INFO dfs.FSNamesystem: BLOCK* NameSystem.addStoredBlock: blockMap updated: 10.250.9.207:50010 is added to blk_8751448391372717220 size 67108864
12260	081109 203722 31 INFO dfs.FSNamesystem: BLOCK* NameSystem.addStoredBlock: blockMap updated: 10.251.107.98:50010 is added to blk_-6519654768909987052 size 67108864
12261	081109 203722 31 INFO dfs.FSNamesystem: BLOCK* NameSystem.allocateBlock: /user/root/rand/_temporary/_task_200811092030_0001_m_000016_0/part-00016. blk_7409100024045179646
12262	081109 203722 33 INFO dfs.FSNamesystem: BLOCK* NameSystem.addStoredBlock: blockMap updated: 10.251.202.209:50010 is added to blk_-6519654768909987052 size 67108864
12263	081109 203722 33 INFO dfs.FSNamesystem: BLOCK* NameSystem.addStoredBlock: blockMap updated: 10.251.214.67:50010 is added to blk_-6003485234128709065 size 67108864
12264	081109 203722 33 INFO dfs.FSNamesystem: BLOCK* NameSystem.addStoredBlock: blockMap updated: 10.251.91.229:50010 is added to blk_8751448391372717220 size 67108864
12265	081109 203722 34 INFO dfs.FSNamesystem: BLOCK* NameSystem.addStoredBlock: blockMap updated: 10.251.37.240:50010 is added to blk_40178224537000875 size 67108864
12266	081109 203722 34 INFO dfs.FSNamesystem: BLOCK* NameSystem.addStoredBlock: blockMap updated: 10.251.42.9:50010 is added to blk_-6118708449788908728 size 67108864
12267	081109 203722 35 INFO dfs.FSNamesystem: BLOCK* NameSystem.addStoredBlock: blockMap updated: 10.251.125.237:50010 is added to blk_251253676484915451 size 67108864
12268	081109 203722 35 INFO dfs.FSNamesystem: BLOCK* NameSystem.addStoredBlock: blockMap updated: 10.251.214.18:50010 is added to blk_40178224537000875 size 67108864
12269	081109 203722 35 INFO dfs.FSNamesystem: BLOCK* NameSystem.allocateBlock: /user/root/rand/_temporary/_task_200811092030_0001_m_000278_0/part-00278. blk_-7558405665651817421
12270	081109 203722 35 INFO dfs.FSNamesystem: BLOCK* NameSystem.allocateBlock: /user/root/rand/_temporary/_task_200811092030_0001_m_000388_0/part-00388. blk_3206591630924866263
12271	081109 203723 187 INFO dfs.DataNode$PacketResponder: PacketResponder 0 for block blk_-2360022432487784826 terminating
12272	081109 203723 187 INFO dfs.DataNode$PacketResponder: Received block blk_-2360022432487784826 of size 67108864 from /10.251.214.32
12273	081109 203723 192 INFO dfs.DataNode$PacketResponder: PacketResponder 1 for block blk_-2360022432487784826 terminating
12274	081109 203723 192 INFO dfs.DataNode$PacketResponder: Received block blk_-2360022432487784826 of size 67108864 from /10.251.109.209
12275	081109 203723 193 INFO dfs.DataNode$PacketResponder: PacketResponder 2 for block blk_-4385381166285131937 terminating
12276	081109 203723 193 INFO dfs.DataNode$PacketResponder: Received block blk_-4385381166285131937 of size 67108864 from /10.250.6.191
12277	081109 203723 194 INFO dfs.DataNode$PacketResponder: PacketResponder 1 for block blk_-8906299271772802557 terminating
12278	081109 203723 194 INFO dfs.DataNode$PacketResponder: Received block blk_-8906299271772802557 of size 67108864 from /10.251.43.115
12279	081109 203723 196 INFO dfs.DataNode$PacketResponder: PacketResponder 2 for block blk_9202404868120642434 terminating
12280	081109 203723 196 INFO dfs.DataNode$PacketResponder: Received block blk_9202404868120642434 of size 67108864 from /10.251.194.129
12281	081109 203723 197 INFO dfs.DataNode$PacketResponder: PacketResponder 1 for block blk_9202404868120642434 terminating
12282	081109 203723 197 INFO dfs.DataNode$PacketResponder: Received block blk_9202404868120642434 of size 67108864 from /10.251.194.129
12283	081109 203723 200 INFO dfs.DataNode$PacketResponder: PacketResponder 2 for block blk_-8906299271772802557 terminating
12284	081109 203723 200 INFO dfs.DataNode$PacketResponder: Received block blk_-8906299271772802557 of size 67108864 from /10.251.43.115
12285	081109 203723 204 INFO dfs.DataNode$PacketResponder: PacketResponder 2 for block blk_-5006915006478235225 terminating
12286	081109 203723 204 INFO dfs.DataNode$PacketResponder: Received block blk_-5006915006478235225 of size 67108864 from /10.251.30.179
12287	081109 203723 210 INFO dfs.DataNode$PacketResponder: PacketResponder 1 for block blk_-4385381166285131937 terminating
12288	081109 203723 210 INFO dfs.DataNode$PacketResponder: Received block blk_-4385381166285131937 of size 67108864 from /10.250.6.191
12289	081109 203723 214 INFO dfs.DataNode$DataXceiver: Receiving block blk_-7064818026825325080 src: /10.251.121.224:51187 dest: /10.251.121.224:50010
12290	081109 203723 214 INFO dfs.DataNode$DataXceiver: Receiving block blk_7409100024045179646 src: /10.251.126.255:39701 dest: /10.251.126.255:50010
12291	081109 203723 216 INFO dfs.DataNode$DataXceiver: Receiving block blk_-6064387680059666120 src: /10.251.31.160:47941 dest: /10.251.31.160:50010
12292	081109 203723 216 INFO dfs.DataNode$DataXceiver: Receiving block blk_-6518874316130635814 src: /10.251.199.150:34436 dest: /10.251.199.150:50010
12293	081109 203723 217 INFO dfs.DataNode$DataXceiver: Receiving block blk_-2204565043490841052 src: /10.251.43.115:53002 dest: /10.251.43.115:50010
12294	081109 203723 217 INFO dfs.DataNode$DataXceiver: Receiving block blk_-6220004753645739802 src: /10.250.6.191:33635 dest: /10.250.6.191:50010
12295	081109 203723 217 INFO dfs.DataNode$DataXceiver: Receiving block blk_-6611443712943925985 src: /10.251.105.189:51369 dest: /10.251.105.189:50010
12296	081109 203723 217 INFO dfs.DataNode$DataXceiver: Receiving block blk_-6611443712943925985 src: /10.251.194.129:45852 dest: /10.251.194.129:50010
12297	081109 203723 217 INFO dfs.DataNode$DataXceiver: Receiving block blk_-6853141743423548732 src: /10.251.37.240:41306 dest: /10.251.37.240:50010
12298	081109 203723 217 INFO dfs.DataNode$DataXceiver: Receiving block blk_7409100024045179646 src: /10.250.7.244:36212 dest: /10.250.7.244:50010
12299	081109 203723 218 INFO dfs.DataNode$DataXceiver: Receiving block blk_-7726798057831307366 src: /10.251.31.242:42269 dest: /10.251.31.242:50010
12300	081109 203723 221 INFO dfs.DataNode$DataXceiver: Receiving block blk_-6853141743423548732 src: /10.251.90.81:57078 dest: /10.251.90.81:50010
12301	081109 203723 222 INFO dfs.DataNode$DataXceiver: Receiving block blk_-6611443712943925985 src: /10.251.194.129:48254 dest: /10.251.194.129:50010
12302	081109 203723 223 INFO dfs.DataNode$DataXceiver: Receiving block blk_3206591630924866263 src: /10.251.29.239:37822 dest: /10.251.29.239:50010
12303	081109 203723 223 INFO dfs.DataNode$DataXceiver: Receiving block blk_-3634129476677736855 src: /10.251.199.159:39618 dest: /10.251.199.159:50010
12304	081109 203723 223 INFO dfs.DataNode$DataXceiver: Receiving block blk_4360614458265238761 src: /10.251.30.179:47398 dest: /10.251.30.179:50010
12305	081109 203723 223 INFO dfs.DataNode$DataXceiver: Receiving block blk_-8717408177813991125 src: /10.251.202.181:49205 dest: /10.251.202.181:50010
12306	081109 203723 224 INFO dfs.DataNode$DataXceiver: Receiving block blk_-6518874316130635814 src: /10.251.123.99:59720 dest: /10.251.123.99:50010
12307	081109 203723 224 INFO dfs.DataNode$DataXceiver: Receiving block blk_-7064818026825325080 src: /10.251.125.237:45261 dest: /10.251.125.237:50010
12308	081109 203723 225 INFO dfs.DataNode$DataXceiver: Receiving block blk_-1024111666072608860 src: /10.251.35.1:39146 dest: /10.251.35.1:50010
12309	081109 203723 228 INFO dfs.DataNode$DataXceiver: Receiving block blk_3206591630924866263 src: /10.251.67.225:42137 dest: /10.251.67.225:50010
12310	081109 203723 228 INFO dfs.DataNode$DataXceiver: Receiving block blk_4360614458265238761 src: /10.251.30.179:52519 dest: /10.251.30.179:50010
12311	081109 203723 26 INFO dfs.FSNamesystem: BLOCK* NameSystem.allocateBlock: /user/root/rand/_temporary/_task_200811092030_0001_m_000283_0/part-00283. blk_-6611443712943925985
12312	081109 203723 27 INFO dfs.FSNamesystem: BLOCK* NameSystem.addStoredBlock: blockMap updated: 10.251.126.227:50010 is added to blk_-8906299271772802557 size 67108864
12313	081109 203723 283 INFO dfs.DataNode$DataXceiver: Receiving block blk_-7726798057831307366 src: /10.251.123.20:54503 dest: /10.251.123.20:50010
12314	081109 203723 28 INFO dfs.FSNamesystem: BLOCK* NameSystem.addStoredBlock: blockMap updated: 10.250.10.6:50010 is added to blk_-5006915006478235225 size 67108864
12315	081109 203723 28 INFO dfs.FSNamesystem: BLOCK* NameSystem.allocateBlock: /user/root/rand/_temporary/_task_200811092030_0001_m_000045_0/part-00045. blk_-2204565043490841052
12316	081109 203723 29 INFO dfs.FSNamesystem: BLOCK* NameSystem.addStoredBlock: blockMap updated: 10.251.199.150:50010 is added to blk_9202404868120642434 size 67108864
12317	081109 203723 30 INFO dfs.FSNamesystem: BLOCK* NameSystem.addStoredBlock: blockMap updated: 10.251.91.159:50010 is added to blk_40178224537000875 size 67108864
12318	081109 203723 32 INFO dfs.FSNamesystem: BLOCK* NameSystem.addStoredBlock: blockMap updated: 10.251.30.179:50010 is added to blk_-5006915006478235225 size 67108864
12319	081109 203723 34 INFO dfs.FSNamesystem: BLOCK* NameSystem.addStoredBlock: blockMap updated: 10.251.194.129:50010 is added to blk_9202404868120642434 size 67108864
12320	081109 203723 34 INFO dfs.FSNamesystem: BLOCK* NameSystem.addStoredBlock: blockMap updated: 10.251.43.115:50010 is added to blk_-8906299271772802557 size 67108864
12321	081109 203723 35 INFO dfs.FSNamesystem: BLOCK* NameSystem.addStoredBlock: blockMap updated: 10.250.6.191:50010 is added to blk_-4385381166285131937 size 67108864
12322	081109 203723 35 INFO dfs.FSNamesystem: BLOCK* NameSystem.allocateBlock: /user/root/rand/_temporary/_task_200811092030_0001_m_000018_0/part-00018. blk_4360614458265238761
12323	081109 203723 35 INFO dfs.FSNamesystem: BLOCK* NameSystem.allocateBlock: /user/root/rand/_temporary/_task_200811092030_0001_m_000335_0/part-00335. blk_-6853141743423548732
12324	081109 203723 35 INFO dfs.FSNamesystem: BLOCK* NameSystem.allocateBlock: /user/root/rand/_temporary/_task_200811092030_0001_m_000369_0/part-00369. blk_-6220004753645739802
12325	081109 203724 13 INFO dfs.DataBlockScanner: Verification succeeded for blk_-4770972463483766707
12326	081109 203724 183 INFO dfs.DataNode$PacketResponder: PacketResponder 1 for block blk_-503792432850915495 terminating
12327	081109 203724 183 INFO dfs.DataNode$PacketResponder: Received block blk_-503792432850915495 of size 67108864 from /10.251.203.129
12328	081109 203724 184 INFO dfs.DataNode$PacketResponder: PacketResponder 1 for block blk_2143803960542795279 terminating
12329	081109 203724 184 INFO dfs.DataNode$PacketResponder: Received block blk_2143803960542795279 of size 67108864 from /10.251.203.4
12330	081109 203724 186 INFO dfs.DataNode$PacketResponder: PacketResponder 0 for block blk_-503792432850915495 terminating
12331	081109 203724 186 INFO dfs.DataNode$PacketResponder: Received block blk_-503792432850915495 of size 67108864 from /10.251.43.21
12332	081109 203724 188 INFO dfs.DataNode$PacketResponder: PacketResponder 2 for block blk_2829796248143905484 terminating
12333	081109 203724 188 INFO dfs.DataNode$PacketResponder: Received block blk_2829796248143905484 of size 67108864 from /10.251.127.191
12334	081109 203724 190 INFO dfs.DataNode$PacketResponder: PacketResponder 1 for block blk_2829796248143905484 terminating
12335	081109 203724 190 INFO dfs.DataNode$PacketResponder: Received block blk_2829796248143905484 of size 67108864 from /10.251.127.191
12336	081109 203724 191 INFO dfs.DataNode$PacketResponder: PacketResponder 0 for block blk_2143803960542795279 terminating
12337	081109 203724 191 INFO dfs.DataNode$PacketResponder: Received block blk_2143803960542795279 of size 67108864 from /10.251.106.214
12338	081109 203724 193 INFO dfs.DataNode$PacketResponder: PacketResponder 2 for block blk_-2360022432487784826 terminating
12339	081109 203724 193 INFO dfs.DataNode$PacketResponder: Received block blk_-2360022432487784826 of size 67108864 from /10.251.109.209
12340	081109 203724 194 INFO dfs.DataNode$PacketResponder: PacketResponder 2 for block blk_-4896140359414230985 terminating
12341	081109 203724 194 INFO dfs.DataNode$PacketResponder: Received block blk_-4896140359414230985 of size 67108864 from /10.251.42.84
12342	081109 203724 198 INFO dfs.DataNode$PacketResponder: PacketResponder 0 for block blk_3055843674966143590 terminating
12343	081109 203724 198 INFO dfs.DataNode$PacketResponder: Received block blk_3055843674966143590 of size 67108864 from /10.251.125.193
12344	081109 203724 199 INFO dfs.DataNode$PacketResponder: PacketResponder 2 for block blk_-2712345717904429729 terminating
12345	081109 203724 199 INFO dfs.DataNode$PacketResponder: Received block blk_-2712345717904429729 of size 67108864 from /10.251.106.50
12346	081109 203724 201 INFO dfs.DataNode$PacketResponder: PacketResponder 1 for block blk_-4896140359414230985 terminating
12347	081109 203724 201 INFO dfs.DataNode$PacketResponder: Received block blk_-4896140359414230985 of size 67108864 from /10.251.42.84
12348	081109 203724 202 INFO dfs.DataNode$PacketResponder: PacketResponder 0 for block blk_2829796248143905484 terminating
12349	081109 203724 202 INFO dfs.DataNode$PacketResponder: Received block blk_2829796248143905484 of size 67108864 from /10.251.38.197
12350	081109 203724 203 INFO dfs.DataNode$PacketResponder: PacketResponder 0 for block blk_4079926698790712684 terminating
12351	081109 203724 203 INFO dfs.DataNode$PacketResponder: PacketResponder 2 for block blk_4079926698790712684 terminating
12352	081109 203724 203 INFO dfs.DataNode$PacketResponder: Received block blk_4079926698790712684 of size 67108864 from /10.251.215.70
12353	081109 203724 203 INFO dfs.DataNode$PacketResponder: Received block blk_4079926698790712684 of size 67108864 from /10.251.90.81
12354	081109 203724 204 INFO dfs.DataNode$PacketResponder: PacketResponder 1 for block blk_4079926698790712684 terminating
12355	081109 203724 204 INFO dfs.DataNode$PacketResponder: PacketResponder 2 for block blk_3055843674966143590 terminating
12356	081109 203724 204 INFO dfs.DataNode$PacketResponder: Received block blk_3055843674966143590 of size 67108864 from /10.251.26.177
12357	081109 203724 204 INFO dfs.DataNode$PacketResponder: Received block blk_4079926698790712684 of size 67108864 from /10.251.215.70
12358	081109 203724 205 INFO dfs.DataNode$PacketResponder: PacketResponder 0 for block blk_-4896140359414230985 terminating
12359	081109 203724 205 INFO dfs.DataNode$PacketResponder: Received block blk_-4896140359414230985 of size 67108864 from /10.251.67.4
12360	081109 203724 205 INFO dfs.DataNode$PacketResponder: Received block blk_-8903847004512332654 of size 67108864 from /10.250.10.144
12361	081109 203724 206 INFO dfs.DataNode$PacketResponder: PacketResponder 1 for block blk_3055843674966143590 terminating
12362	081109 203724 206 INFO dfs.DataNode$PacketResponder: PacketResponder 1 for block blk_-7144841706108220450 terminating
12363	081109 203724 206 INFO dfs.DataNode$PacketResponder: Received block blk_3055843674966143590 of size 67108864 from /10.251.26.177
12364	081109 203724 206 INFO dfs.DataNode$PacketResponder: Received block blk_-7144841706108220450 of size 67108864 from /10.251.198.33
12365	081109 203724 212 INFO dfs.DataNode$PacketResponder: PacketResponder 1 for block blk_-2712345717904429729 terminating
12366	081109 203724 212 INFO dfs.DataNode$PacketResponder: PacketResponder 2 for block blk_-7144841706108220450 terminating
12367	081109 203724 212 INFO dfs.DataNode$PacketResponder: Received block blk_-2712345717904429729 of size 67108864 from /10.251.106.50
12368	081109 203724 212 INFO dfs.DataNode$PacketResponder: Received block blk_-7144841706108220450 of size 67108864 from /10.251.198.33
12369	081109 203724 213 INFO dfs.DataNode$DataXceiver: Receiving block blk_-256987950024366553 src: /10.251.42.84:33146 dest: /10.251.42.84:50010
12370	081109 203724 213 INFO dfs.DataNode$PacketResponder: PacketResponder 0 for block blk_-7144841706108220450 terminating
12371	081109 203724 213 INFO dfs.DataNode$PacketResponder: Received block blk_-7144841706108220450 of size 67108864 from /10.251.66.102
12372	081109 203724 216 INFO dfs.DataNode$DataXceiver: Receiving block blk_4108188233306563869 src: /10.251.198.33:45034 dest: /10.251.198.33:50010
12373	081109 203724 217 INFO dfs.DataNode$DataXceiver: Receiving block blk_-7994532048860001059 src: /10.251.215.70:57579 dest: /10.251.215.70:50010
12374	081109 203724 218 INFO dfs.DataNode$DataXceiver: Receiving block blk_7277386080338318562 src: /10.251.106.50:44610 dest: /10.251.106.50:50010
12375	081109 203724 219 INFO dfs.DataNode$DataXceiver: Receiving block blk_-6952295868487656571 src: /10.251.26.177:57834 dest: /10.251.26.177:50010
12376	081109 203724 224 INFO dfs.DataNode$DataXceiver: Receiving block blk_3523500992415372662 src: /10.251.127.191:43685 dest: /10.251.127.191:50010
12377	081109 203724 224 INFO dfs.DataNode$DataXceiver: Receiving block blk_-6220004753645739802 src: /10.250.6.191:51779 dest: /10.250.6.191:50010
12378	081109 203724 225 INFO dfs.DataNode$DataXceiver: Receiving block blk_-7693360519127908310 src: /10.251.109.209:46613 dest: /10.251.109.209:50010
12379	081109 203724 227 INFO dfs.DataNode$DataXceiver: Receiving block blk_-2236131320508581157 src: /10.251.215.70:52178 dest: /10.251.215.70:50010
12380	081109 203724 228 INFO dfs.DataNode$DataXceiver: Receiving block blk_4108188233306563869 src: /10.251.198.33:44106 dest: /10.251.198.33:50010
12381	081109 203724 228 INFO dfs.DataNode$DataXceiver: Receiving block blk_-7693360519127908310 src: /10.251.109.209:45191 dest: /10.251.109.209:50010
12382	081109 203724 229 INFO dfs.DataNode$PacketResponder: PacketResponder 0 for block blk_-2712345717904429729 terminating
12383	081109 203724 229 INFO dfs.DataNode$PacketResponder: Received block blk_-2712345717904429729 of size 67108864 from /10.251.71.16
12384	081109 203724 230 INFO dfs.DataNode$DataXceiver: Receiving block blk_8436884996754537406 src: /10.251.91.229:44119 dest: /10.251.91.229:50010
12385	081109 203724 26 INFO dfs.FSNamesystem: BLOCK* NameSystem.addStoredBlock: blockMap updated: 10.251.90.81:50010 is added to blk_4079926698790712684 size 67108864
12386	081109 203724 27 INFO dfs.FSNamesystem: BLOCK* NameSystem.addStoredBlock: blockMap updated: 10.251.215.16:50010 is added to blk_-2712345717904429729 size 67108864
12387	081109 203724 27 INFO dfs.FSNamesystem: BLOCK* NameSystem.addStoredBlock: blockMap updated: 10.251.30.101:50010 is added to blk_-2360022432487784826 size 67108864
12388	081109 203724 27 INFO dfs.FSNamesystem: BLOCK* NameSystem.addStoredBlock: blockMap updated: 10.251.66.102:50010 is added to blk_-7144841706108220450 size 67108864
12389	081109 203724 27 INFO dfs.FSNamesystem: BLOCK* NameSystem.addStoredBlock: blockMap updated: 10.251.70.211:50010 is added to blk_9202404868120642434 size 67108864
12390	081109 203724 27 INFO dfs.FSNamesystem: BLOCK* NameSystem.allocateBlock: /user/root/rand/_temporary/_task_200811092030_0001_m_000334_0/part-00334. blk_-7693360519127908310
12391	081109 203724 28 INFO dfs.FSNamesystem: BLOCK* NameSystem.addStoredBlock: blockMap updated: 10.251.70.37:50010 is added to blk_3055843674966143590 size 67108864
12392	081109 203724 28 INFO dfs.FSNamesystem: BLOCK* NameSystem.addStoredBlock: blockMap updated: 10.251.71.16:50010 is added to blk_-2712345717904429729 size 67108864
12393	081109 203724 28 INFO dfs.FSNamesystem: BLOCK* NameSystem.addStoredBlock: blockMap updated: 10.251.73.220:50010 is added to blk_2829796248143905484 size 67108864
12394	081109 203724 29 INFO dfs.FSNamesystem: BLOCK* NameSystem.addStoredBlock: blockMap updated: 10.251.214.32:50010 is added to blk_-2360022432487784826 size 67108864
12395	081109 203724 29 INFO dfs.FSNamesystem: BLOCK* NameSystem.allocateBlock: /user/root/rand/_temporary/_task_200811092030_0001_m_000366_0/part-00366. blk_7277386080338318562
12396	081109 203724 30 INFO dfs.FSNamesystem: BLOCK* NameSystem.addStoredBlock: blockMap updated: 10.251.42.84:50010 is added to blk_-4896140359414230985 size 67108864
12397	081109 203724 30 INFO dfs.FSNamesystem: BLOCK* NameSystem.addStoredBlock: blockMap updated: 10.251.70.5:50010 is added to blk_251253676484915451 size 67108864
12398	081109 203724 30 INFO dfs.FSNamesystem: BLOCK* NameSystem.allocateBlock: /user/root/rand/_temporary/_task_200811092030_0001_m_000009_0/part-00009. blk_3523500992415372662
12399	081109 203724 31 INFO dfs.FSNamesystem: BLOCK* NameSystem.addStoredBlock: blockMap updated: 10.251.127.191:50010 is added to blk_2829796248143905484 size 67108864
12400	081109 203724 31 INFO dfs.FSNamesystem: BLOCK* NameSystem.addStoredBlock: blockMap updated: 10.251.198.33:50010 is added to blk_-7144841706108220450 size 67108864
12401	081109 203724 31 INFO dfs.FSNamesystem: BLOCK* NameSystem.addStoredBlock: blockMap updated: 10.251.26.131:50010 is added to blk_-8906299271772802557 size 67108864
12402	081109 203724 31 INFO dfs.FSNamesystem: BLOCK* NameSystem.allocateBlock: /user/root/rand/_temporary/_task_200811092030_0001_m_000279_0/part-00279. blk_-7994532048860001059
12403	081109 203724 32 INFO dfs.FSNamesystem: BLOCK* NameSystem.addStoredBlock: blockMap updated: 10.251.109.209:50010 is added to blk_-2360022432487784826 size 67108864
12404	081109 203724 32 INFO dfs.FSNamesystem: BLOCK* NameSystem.addStoredBlock: blockMap updated: 10.251.31.180:50010 is added to blk_-5006915006478235225 size 67108864
12405	081109 203724 32 INFO dfs.FSNamesystem: BLOCK* NameSystem.allocateBlock: /user/root/rand/_temporary/_task_200811092030_0001_m_000276_0/part-00276. blk_-256987950024366553
12406	081109 203724 33 INFO dfs.FSNamesystem: BLOCK* NameSystem.addStoredBlock: blockMap updated: 10.251.106.214:50010 is added to blk_2143803960542795279 size 67108864
12407	081109 203724 33 INFO dfs.FSNamesystem: BLOCK* NameSystem.addStoredBlock: blockMap updated: 10.251.26.177:50010 is added to blk_3055843674966143590 size 67108864
12408	081109 203724 33 INFO dfs.FSNamesystem: BLOCK* NameSystem.addStoredBlock: blockMap updated: 10.251.75.163:50010 is added to blk_-8903847004512332654 size 67108864
12409	081109 203724 33 INFO dfs.FSNamesystem: BLOCK* NameSystem.allocateBlock: /user/root/rand/_temporary/_task_200811092030_0001_m_000240_0/part-00240. blk_4108188233306563869
12410	081109 203724 34 INFO dfs.FSNamesystem: BLOCK* NameSystem.addStoredBlock: blockMap updated: 10.251.106.50:50010 is added to blk_-2712345717904429729 size 67108864
12411	081109 203724 34 INFO dfs.FSNamesystem: BLOCK* NameSystem.addStoredBlock: blockMap updated: 10.251.125.193:50010 is added to blk_3055843674966143590 size 67108864
12412	081109 203724 34 INFO dfs.FSNamesystem: BLOCK* NameSystem.addStoredBlock: blockMap updated: 10.251.38.197:50010 is added to blk_2829796248143905484 size 67108864
12413	081109 203724 34 INFO dfs.FSNamesystem: BLOCK* NameSystem.addStoredBlock: blockMap updated: 10.251.67.4:50010 is added to blk_-4896140359414230985 size 67108864
12414	081109 203724 34 INFO dfs.FSNamesystem: BLOCK* NameSystem.allocateBlock: /user/root/rand/_temporary/_task_200811092030_0001_m_000201_0/part-00201. blk_-6952295868487656571
12415	081109 203724 35 INFO dfs.FSNamesystem: BLOCK* NameSystem.addStoredBlock: blockMap updated: 10.250.10.213:50010 is added to blk_-4896140359414230985 size 67108864
12416	081109 203724 35 INFO dfs.FSNamesystem: BLOCK* NameSystem.addStoredBlock: blockMap updated: 10.251.109.209:50010 is added to blk_-7144841706108220450 size 67108864
12417	081109 203724 35 INFO dfs.FSNamesystem: BLOCK* NameSystem.addStoredBlock: blockMap updated: 10.251.199.150:50010 is added to blk_-503792432850915495 size 67108864
12418	081109 203724 35 INFO dfs.FSNamesystem: BLOCK* NameSystem.addStoredBlock: blockMap updated: 10.251.215.70:50010 is added to blk_4079926698790712684 size 67108864
12419	081109 203724 35 INFO dfs.FSNamesystem: BLOCK* NameSystem.addStoredBlock: blockMap updated: 10.251.43.21:50010 is added to blk_2143803960542795279 size 67108864
12420	081109 203725 182 INFO dfs.DataNode$PacketResponder: PacketResponder 0 for block blk_2207505383141413278 terminating
12421	081109 203725 182 INFO dfs.DataNode$PacketResponder: Received block blk_2207505383141413278 of size 67108864 from /10.251.70.211
12422	081109 203725 186 INFO dfs.DataNode$PacketResponder: PacketResponder 2 for block blk_2207505383141413278 terminating
12423	081109 203725 186 INFO dfs.DataNode$PacketResponder: Received block blk_2207505383141413278 of size 67108864 from /10.251.122.38
12424	081109 203725 188 INFO dfs.DataNode$PacketResponder: PacketResponder 1 for block blk_2207505383141413278 terminating
12425	081109 203725 188 INFO dfs.DataNode$PacketResponder: Received block blk_2207505383141413278 of size 67108864 from /10.251.122.38
12426	081109 203725 190 INFO dfs.DataNode$PacketResponder: PacketResponder 0 for block blk_-3768660671303210170 terminating
12427	081109 203725 190 INFO dfs.DataNode$PacketResponder: Received block blk_-3768660671303210170 of size 67108864 from /10.251.194.245
12428	081109 203725 192 INFO dfs.DataNode$PacketResponder: PacketResponder 2 for block blk_2143803960542795279 terminating
12429	081109 203725 192 INFO dfs.DataNode$PacketResponder: PacketResponder 2 for block blk_-503792432850915495 terminating
12430	081109 203725 192 INFO dfs.DataNode$PacketResponder: Received block blk_2143803960542795279 of size 67108864 from /10.251.203.4
12431	081109 203725 192 INFO dfs.DataNode$PacketResponder: Received block blk_-503792432850915495 of size 67108864 from /10.251.203.129
12432	081109 203725 194 INFO dfs.DataNode$PacketResponder: PacketResponder 2 for block blk_-4830167090961967482 terminating
12433	081109 203725 194 INFO dfs.DataNode$PacketResponder: Received block blk_-4830167090961967482 of size 67108864 from /10.251.105.189
12434	081109 203725 195 INFO dfs.DataNode$PacketResponder: PacketResponder 2 for block blk_-3783593332169000834 terminating
12435	081109 203725 195 INFO dfs.DataNode$PacketResponder: Received block blk_-3783593332169000834 of size 67108864 from /10.251.43.115
12436	081109 203725 196 INFO dfs.DataNode$PacketResponder: PacketResponder 1 for block blk_-3783593332169000834 terminating
12437	081109 203725 196 INFO dfs.DataNode$PacketResponder: Received block blk_-3620130116081708382 of size 67108864 from /10.251.214.67
12438	081109 203725 196 INFO dfs.DataNode$PacketResponder: Received block blk_-3783593332169000834 of size 67108864 from /10.251.43.115
12439	081109 203725 198 INFO dfs.DataNode$PacketResponder: PacketResponder 1 for block blk_6073926273468114352 terminating
12440	081109 203725 198 INFO dfs.DataNode$PacketResponder: Received block blk_6073926273468114352 of size 67108864 from /10.250.14.38
12441	081109 203725 200 INFO dfs.DataNode$PacketResponder: PacketResponder 0 for block blk_-5594513084694337919 terminating
12442	081109 203725 200 INFO dfs.DataNode$PacketResponder: PacketResponder 1 for block blk_-3620130116081708382 terminating
12443	081109 203725 200 INFO dfs.DataNode$PacketResponder: Received block blk_-3620130116081708382 of size 67108864 from /10.250.6.4
12444	081109 203725 200 INFO dfs.DataNode$PacketResponder: Received block blk_-5594513084694337919 of size 67108864 from /10.251.106.37
12445	081109 203725 201 INFO dfs.DataNode$PacketResponder: PacketResponder 0 for block blk_6073926273468114352 terminating
12446	081109 203725 201 INFO dfs.DataNode$PacketResponder: PacketResponder 1 for block blk_-1344414382455035258 terminating
12447	081109 203725 201 INFO dfs.DataNode$PacketResponder: PacketResponder 1 for block blk_-3768660671303210170 terminating
12448	081109 203725 201 INFO dfs.DataNode$PacketResponder: Received block blk_-1344414382455035258 of size 67108864 from /10.250.10.223
12449	081109 203725 201 INFO dfs.DataNode$PacketResponder: Received block blk_-3768660671303210170 of size 67108864 from /10.251.106.37
12450	081109 203725 201 INFO dfs.DataNode$PacketResponder: Received block blk_6073926273468114352 of size 67108864 from /10.251.75.143
12451	081109 203725 202 INFO dfs.DataNode$PacketResponder: PacketResponder 0 for block blk_-3783593332169000834 terminating
12452	081109 203725 202 INFO dfs.DataNode$PacketResponder: PacketResponder 2 for block blk_-1344414382455035258 terminating
12453	081109 203725 202 INFO dfs.DataNode$PacketResponder: PacketResponder 2 for block blk_-5594513084694337919 terminating
12454	081109 203725 202 INFO dfs.DataNode$PacketResponder: PacketResponder 2 for block blk_6073926273468114352 terminating
12455	081109 203725 202 INFO dfs.DataNode$PacketResponder: Received block blk_-1344414382455035258 of size 67108864 from /10.250.10.223
12456	081109 203725 202 INFO dfs.DataNode$PacketResponder: Received block blk_-3783593332169000834 of size 67108864 from /10.251.39.160
12457	081109 203725 202 INFO dfs.DataNode$PacketResponder: Received block blk_-5594513084694337919 of size 67108864 from /10.251.31.85
12458	081109 203725 202 INFO dfs.DataNode$PacketResponder: Received block blk_6073926273468114352 of size 67108864 from /10.250.14.38
12459	081109 203725 204 INFO dfs.DataNode$PacketResponder: PacketResponder 2 for block blk_-3768660671303210170 terminating
12460	081109 203725 204 INFO dfs.DataNode$PacketResponder: Received block blk_-3768660671303210170 of size 67108864 from /10.251.106.37
12461	081109 203725 205 INFO dfs.DataNode$PacketResponder: PacketResponder 0 for block blk_-8903847004512332654 terminating
12462	081109 203725 207 INFO dfs.DataNode$PacketResponder: PacketResponder 0 for block blk_-4830167090961967482 terminating
12463	081109 203725 207 INFO dfs.DataNode$PacketResponder: PacketResponder 2 for block blk_-8903847004512332654 terminating
12464	081109 203725 207 INFO dfs.DataNode$PacketResponder: Received block blk_-4830167090961967482 of size 67108864 from /10.250.14.224
12465	081109 203725 207 INFO dfs.DataNode$PacketResponder: Received block blk_-8903847004512332654 of size 67108864 from /10.251.70.211
12466	081109 203725 208 INFO dfs.DataNode$PacketResponder: PacketResponder 1 for block blk_-8903847004512332654 terminating
12467	081109 203725 208 INFO dfs.DataNode$PacketResponder: Received block blk_-8903847004512332654 of size 67108864 from /10.251.70.211
12468	081109 203725 210 INFO dfs.DataNode$PacketResponder: PacketResponder 0 for block blk_-1344414382455035258 terminating
12469	081109 203725 210 INFO dfs.DataNode$PacketResponder: Received block blk_-1344414382455035258 of size 67108864 from /10.251.30.85
12470	081109 203725 211 INFO dfs.DataNode$DataXceiver: Receiving block blk_-3535745697875280072 src: /10.250.10.223:52637 dest: /10.250.10.223:50010
12471	081109 203725 213 INFO dfs.DataNode$DataXceiver: Receiving block blk_-3980882089409773867 src: /10.251.123.99:54674 dest: /10.251.123.99:50010
12472	081109 203725 213 INFO dfs.DataNode$PacketResponder: PacketResponder 0 for block blk_6449160132965780136 terminating
12473	081109 203725 213 INFO dfs.DataNode$PacketResponder: PacketResponder 1 for block blk_-4753783660294567604 terminating
12474	081109 203725 213 INFO dfs.DataNode$PacketResponder: PacketResponder 1 for block blk_-5594513084694337919 terminating
12475	081109 203725 213 INFO dfs.DataNode$PacketResponder: Received block blk_-4753783660294567604 of size 67108864 from /10.251.203.179
12476	081109 203725 213 INFO dfs.DataNode$PacketResponder: Received block blk_-5594513084694337919 of size 67108864 from /10.251.31.85
12477	081109 203725 213 INFO dfs.DataNode$PacketResponder: Received block blk_6449160132965780136 of size 67108864 from /10.251.107.242
12478	081109 203725 214 INFO dfs.DataNode$DataXceiver: Receiving block blk_1126185031544938129 src: /10.251.106.37:53824 dest: /10.251.106.37:50010
12479	081109 203725 214 INFO dfs.DataNode$DataXceiver: Receiving block blk_-1960867505998358789 src: /10.251.31.85:53063 dest: /10.251.31.85:50010
12480	081109 203725 216 INFO dfs.DataNode$DataXceiver: Receiving block blk_2036925106357831642 src: /10.251.122.38:57874 dest: /10.251.122.38:50010
12481	081109 203725 216 INFO dfs.DataNode$PacketResponder: PacketResponder 0 for block blk_-4753783660294567604 terminating
12482	081109 203725 216 INFO dfs.DataNode$PacketResponder: Received block blk_-4753783660294567604 of size 67108864 from /10.250.14.38
12483	081109 203725 219 INFO dfs.DataNode$DataXceiver: Receiving block blk_1126185031544938129 src: /10.251.126.227:33920 dest: /10.251.126.227:50010
12484	081109 203725 219 INFO dfs.DataNode$DataXceiver: Receiving block blk_-3390831806322240721 src: /10.251.42.246:43358 dest: /10.251.42.246:50010
12485	081109 203725 220 INFO dfs.DataNode$DataXceiver: Receiving block blk_-256987950024366553 src: /10.251.67.225:48147 dest: /10.251.67.225:50010
12486	081109 203725 220 INFO dfs.DataNode$DataXceiver: Receiving block blk_4108188233306563869 src: /10.251.125.237:33189 dest: /10.251.125.237:50010
12487	081109 203725 220 INFO dfs.DataNode$DataXceiver: Receiving block blk_4281421419951825346 src: /10.250.10.144:44752 dest: /10.250.10.144:50010
12488	081109 203725 221 INFO dfs.DataNode$DataXceiver: Receiving block blk_-1960867505998358789 src: /10.251.31.85:44476 dest: /10.251.31.85:50010
12489	081109 203725 221 INFO dfs.DataNode$DataXceiver: Receiving block blk_4281421419951825346 src: /10.251.105.189:37266 dest: /10.251.105.189:50010
12490	081109 203725 221 INFO dfs.DataNode$DataXceiver: Receiving block blk_-6952295868487656571 src: /10.251.199.159:55630 dest: /10.251.199.159:50010
12491	081109 203725 222 INFO dfs.DataNode$DataXceiver: Receiving block blk_-9162656199001154940 src: /10.251.203.129:36179 dest: /10.251.203.129:50010
12492	081109 203725 224 INFO dfs.DataNode$DataXceiver: Receiving block blk_-2942348081186881566 src: /10.250.14.38:57052 dest: /10.250.14.38:50010
12493	081109 203725 224 INFO dfs.DataNode$DataXceiver: Receiving block blk_4281421419951825346 src: /10.251.105.189:56497 dest: /10.251.105.189:50010
12494	081109 203725 224 INFO dfs.DataNode$DataXceiver: Receiving block blk_5890146161807657166 src: /10.251.203.4:47921 dest: /10.251.203.4:50010
12495	081109 203725 224 INFO dfs.DataNode$DataXceiver: Receiving block blk_-9162656199001154940 src: /10.251.203.129:44331 dest: /10.251.203.129:50010
12496	081109 203725 225 INFO dfs.DataNode$DataXceiver: Receiving block blk_-6952295868487656571 src: /10.251.26.177:43878 dest: /10.251.26.177:50010
12497	081109 203725 225 INFO dfs.DataNode$DataXceiver: Receiving block blk_-8717408177813991125 src: /10.251.202.181:43577 dest: /10.251.202.181:50010
12498	081109 203725 226 INFO dfs.DataNode$DataXceiver: Receiving block blk_5890146161807657166 src: /10.251.203.4:52299 dest: /10.251.203.4:50010
12499	081109 203725 226 INFO dfs.DataNode$DataXceiver: Receiving block blk_6234382026295468952 src: /10.251.70.211:48380 dest: /10.251.70.211:50010
12500	081109 203725 226 INFO dfs.DataNode$DataXceiver: Receiving block blk_-7994532048860001059 src: /10.251.215.70:45340 dest: /10.251.215.70:50010
12501	081109 203725 228 INFO dfs.DataNode$DataXceiver: Receiving block blk_-7693360519127908310 src: /10.251.39.144:41481 dest: /10.251.39.144:50010
12502	081109 203725 228 INFO dfs.DataNode$DataXceiver: Receiving block blk_-8717408177813991125 src: /10.250.17.177:43952 dest: /10.250.17.177:50010
12503	081109 203725 228 INFO dfs.DataNode$PacketResponder: PacketResponder 1 for block blk_-4830167090961967482 terminating
12504	081109 203725 228 INFO dfs.DataNode$PacketResponder: Received block blk_-4830167090961967482 of size 67108864 from /10.251.105.189
12505	081109 203725 229 INFO dfs.DataNode$DataXceiver: Receiving block blk_-6220004753645739802 src: /10.251.70.211:50859 dest: /10.251.70.211:50010
12506	081109 203725 230 INFO dfs.DataNode$DataXceiver: Receiving block blk_-256987950024366553 src: /10.251.42.84:57064 dest: /10.251.42.84:50010
12507	081109 203725 231 INFO dfs.DataNode$DataXceiver: Receiving block blk_1126185031544938129 src: /10.251.106.37:54728 dest: /10.251.106.37:50010
12508	081109 203725 232 INFO dfs.DataNode$DataXceiver: Receiving block blk_-2942348081186881566 src: /10.250.14.38:34039 dest: /10.250.14.38:50010
12509	081109 203725 27 INFO dfs.FSNamesystem: BLOCK* NameSystem.addStoredBlock: blockMap updated: 10.250.14.38:50010 is added to blk_-4753783660294567604 size 67108864
12510	081109 203725 27 INFO dfs.FSNamesystem: BLOCK* NameSystem.addStoredBlock: blockMap updated: 10.250.14.38:50010 is added to blk_6073926273468114352 size 67108864
12511	081109 203725 27 INFO dfs.FSNamesystem: BLOCK* NameSystem.addStoredBlock: blockMap updated: 10.251.105.189:50010 is added to blk_-4830167090961967482 size 67108864
12512	081109 203725 27 INFO dfs.FSNamesystem: BLOCK* NameSystem.addStoredBlock: blockMap updated: 10.251.106.37:50010 is added to blk_-5594513084694337919 size 67108864
12513	081109 203725 27 INFO dfs.FSNamesystem: BLOCK* NameSystem.addStoredBlock: blockMap updated: 10.251.107.98:50010 is added to blk_-1344414382455035258 size 67108864
12514	081109 203725 27 INFO dfs.FSNamesystem: BLOCK* NameSystem.allocateBlock: /user/root/rand/_temporary/_task_200811092030_0001_m_000003_0/part-00003. blk_5890146161807657166
12515	081109 203725 28 INFO dfs.FSNamesystem: BLOCK* NameSystem.addStoredBlock: blockMap updated: 10.251.203.4:50010 is added to blk_2143803960542795279 size 67108864
12516	081109 203725 28 INFO dfs.FSNamesystem: BLOCK* NameSystem.addStoredBlock: blockMap updated: 10.251.73.188:50010 is added to blk_-4385381166285131937 size 67108864
12517	081109 203725 28 INFO dfs.FSNamesystem: BLOCK* NameSystem.allocateBlock: /user/root/rand/_temporary/_task_200811092030_0001_m_000134_0/part-00134. blk_5468541794269890255
12518	081109 203725 29 INFO dfs.FSNamesystem: BLOCK* NameSystem.addStoredBlock: blockMap updated: 10.250.10.223:50010 is added to blk_-1344414382455035258 size 67108864
12519	081109 203725 29 INFO dfs.FSNamesystem: BLOCK* NameSystem.addStoredBlock: blockMap updated: 10.250.7.32:50010 is added to blk_-3768660671303210170 size 67108864
12520	081109 203725 29 INFO dfs.FSNamesystem: BLOCK* NameSystem.addStoredBlock: blockMap updated: 10.251.203.166:50010 is added to blk_-5594513084694337919 size 67108864
12521	081109 203725 29 INFO dfs.FSNamesystem: BLOCK* NameSystem.allocateBlock: /user/root/rand/_temporary/_task_200811092030_0001_m_000233_0/part-00233. blk_-1960867505998358789
12522	081109 203725 30 INFO dfs.FSNamesystem: BLOCK* NameSystem.addStoredBlock: blockMap updated: 10.251.105.189:50010 is added to blk_-3620130116081708382 size 67108864
12523	081109 203725 30 INFO dfs.FSNamesystem: BLOCK* NameSystem.addStoredBlock: blockMap updated: 10.251.110.160:50010 is added to blk_-4830167090961967482 size 67108864
12524	081109 203725 30 INFO dfs.FSNamesystem: BLOCK* NameSystem.addStoredBlock: blockMap updated: 10.251.199.86:50010 is added to blk_-4753783660294567604 size 67108864
12525	081109 203725 30 INFO dfs.FSNamesystem: BLOCK* NameSystem.addStoredBlock: blockMap updated: 10.251.39.160:50010 is added to blk_-3783593332169000834 size 67108864
12526	081109 203725 31 INFO dfs.FSNamesystem: BLOCK* NameSystem.addStoredBlock: blockMap updated: 10.251.106.37:50010 is added to blk_-3768660671303210170 size 67108864
12527	081109 203725 31 INFO dfs.FSNamesystem: BLOCK* NameSystem.addStoredBlock: blockMap updated: 10.251.214.67:50010 is added to blk_-3620130116081708382 size 67108864
12528	081109 203725 31 INFO dfs.FSNamesystem: BLOCK* NameSystem.addStoredBlock: blockMap updated: 10.251.70.211:50010 is added to blk_2207505383141413278 size 67108864
12529	081109 203725 31 INFO dfs.FSNamesystem: BLOCK* NameSystem.addStoredBlock: blockMap updated: 10.251.75.143:50010 is added to blk_6073926273468114352 size 67108864
12530	081109 203725 31 INFO dfs.FSNamesystem: BLOCK* NameSystem.allocateBlock: /user/root/rand/_temporary/_task_200811092030_0001_m_000163_0/part-00163. blk_-3535745697875280072
12531	081109 203725 31 INFO dfs.FSNamesystem: BLOCK* NameSystem.allocateBlock: /user/root/rand/_temporary/_task_200811092030_0001_m_000231_0/part-00231. blk_-9162656199001154940
12532	081109 203725 32 INFO dfs.FSNamesystem: BLOCK* NameSystem.addStoredBlock: blockMap updated: 10.250.10.144:50010 is added to blk_-8903847004512332654 size 67108864
12533	081109 203725 32 INFO dfs.FSNamesystem: BLOCK* NameSystem.addStoredBlock: blockMap updated: 10.250.14.224:50010 is added to blk_-4830167090961967482 size 67108864
12534	081109 203725 32 INFO dfs.FSNamesystem: BLOCK* NameSystem.addStoredBlock: blockMap updated: 10.251.194.245:50010 is added to blk_-3768660671303210170 size 67108864
12535	081109 203725 32 INFO dfs.FSNamesystem: BLOCK* NameSystem.addStoredBlock: blockMap updated: 10.251.43.21:50010 is added to blk_-503792432850915495 size 67108864
12536	081109 203725 32 INFO dfs.FSNamesystem: BLOCK* NameSystem.allocateBlock: /user/root/rand/_temporary/_task_200811092030_0001_m_000190_0/part-00190. blk_4281421419951825346
12537	081109 203725 32 INFO dfs.FSNamesystem: BLOCK* NameSystem.allocateBlock: /user/root/rand/_temporary/_task_200811092030_0001_m_000227_0/part-00227. blk_-2942348081186881566
12538	081109 203725 33 INFO dfs.FSNamesystem: BLOCK* NameSystem.addStoredBlock: blockMap updated: 10.251.122.38:50010 is added to blk_2207505383141413278 size 67108864
12539	081109 203725 33 INFO dfs.FSNamesystem: BLOCK* NameSystem.addStoredBlock: blockMap updated: 10.251.198.33:50010 is added to blk_-3783593332169000834 size 67108864
12540	081109 203725 33 INFO dfs.FSNamesystem: BLOCK* NameSystem.addStoredBlock: blockMap updated: 10.251.70.211:50010 is added to blk_-8903847004512332654 size 67108864
12541	081109 203725 33 INFO dfs.FSNamesystem: BLOCK* NameSystem.addStoredBlock: blockMap updated: 10.251.90.134:50010 is added to blk_6073926273468114352 size 67108864
12542	081109 203725 34 INFO dfs.FSNamesystem: BLOCK* NameSystem.addStoredBlock: blockMap updated: 10.251.203.129:50010 is added to blk_-503792432850915495 size 67108864
12543	081109 203725 34 INFO dfs.FSNamesystem: BLOCK* NameSystem.addStoredBlock: blockMap updated: 10.251.31.242:50010 is added to blk_4079926698790712684 size 67108864
12544	081109 203725 34 INFO dfs.FSNamesystem: BLOCK* NameSystem.addStoredBlock: blockMap updated: 10.251.31.85:50010 is added to blk_-5594513084694337919 size 67108864
12545	081109 203725 34 INFO dfs.FSNamesystem: BLOCK* NameSystem.allocateBlock: /user/root/rand/_temporary/_task_200811092030_0001_m_000287_0/part-00287. blk_2036925106357831642
12546	081109 203725 34 INFO dfs.FSNamesystem: BLOCK* NameSystem.allocateBlock: /user/root/rand/_temporary/_task_200811092030_0001_m_000297_0/part-00297. blk_1126185031544938129
12547	081109 203725 35 INFO dfs.FSNamesystem: BLOCK* NameSystem.addStoredBlock: blockMap updated: 10.251.30.85:50010 is added to blk_-1344414382455035258 size 67108864
12548	081109 203725 35 INFO dfs.FSNamesystem: BLOCK* NameSystem.addStoredBlock: blockMap updated: 10.251.91.32:50010 is added to blk_2207505383141413278 size 67108864
12549	081109 203725 35 INFO dfs.FSNamesystem: BLOCK* NameSystem.allocateBlock: /user/root/rand/_temporary/_task_200811092030_0001_m_000171_0/part-00171. blk_6234382026295468952
12550	081109 203726 180 INFO dfs.DataNode$PacketResponder: PacketResponder 2 for block blk_5435795890716266026 terminating
12551	081109 203726 180 INFO dfs.DataNode$PacketResponder: Received block blk_5435795890716266026 of size 67108864 from /10.251.71.68
12552	081109 203726 183 INFO dfs.DataNode$PacketResponder: PacketResponder 0 for block blk_5435795890716266026 terminating
12553	081109 203726 183 INFO dfs.DataNode$PacketResponder: PacketResponder 0 for block blk_-7644485990528150829 terminating
12554	081109 203726 183 INFO dfs.DataNode$PacketResponder: PacketResponder 1 for block blk_5435795890716266026 terminating
12555	081109 203726 183 INFO dfs.DataNode$PacketResponder: Received block blk_5435795890716266026 of size 67108864 from /10.251.126.255
12556	081109 203726 183 INFO dfs.DataNode$PacketResponder: Received block blk_5435795890716266026 of size 67108864 from /10.251.71.68
12557	081109 203726 183 INFO dfs.DataNode$PacketResponder: Received block blk_-7644485990528150829 of size 67108864 from /10.251.122.65
12558	081109 203726 184 INFO dfs.DataNode$PacketResponder: PacketResponder 1 for block blk_-7644485990528150829 terminating
12559	081109 203726 184 INFO dfs.DataNode$PacketResponder: Received block blk_-7644485990528150829 of size 67108864 from /10.251.126.83
12560	081109 203726 187 INFO dfs.DataNode$PacketResponder: PacketResponder 0 for block blk_-7311877763840212450 terminating
12561	081109 203726 187 INFO dfs.DataNode$PacketResponder: PacketResponder 1 for block blk_71358664454240061 terminating
12562	081109 203726 187 INFO dfs.DataNode$PacketResponder: Received block blk_71358664454240061 of size 67108864 from /10.251.39.179
12563	081109 203726 187 INFO dfs.DataNode$PacketResponder: Received block blk_-7311877763840212450 of size 67108864 from /10.250.19.16
12564	081109 203726 188 INFO dfs.DataNode$PacketResponder: PacketResponder 1 for block blk_-6653557694518759805 terminating
12565	081109 203726 188 INFO dfs.DataNode$PacketResponder: Received block blk_-6653557694518759805 of size 67108864 from /10.251.91.229
12566	081109 203726 189 INFO dfs.DataNode$PacketResponder: PacketResponder 2 for block blk_-7311877763840212450 terminating
12567	081109 203726 189 INFO dfs.DataNode$PacketResponder: PacketResponder 2 for block blk_-7644485990528150829 terminating
12568	081109 203726 189 INFO dfs.DataNode$PacketResponder: Received block blk_-7311877763840212450 of size 67108864 from /10.251.91.84
12569	081109 203726 189 INFO dfs.DataNode$PacketResponder: Received block blk_-7644485990528150829 of size 67108864 from /10.251.126.83
12570	081109 203726 190 INFO dfs.DataNode$PacketResponder: PacketResponder 0 for block blk_-6653557694518759805 terminating
12571	081109 203726 190 INFO dfs.DataNode$PacketResponder: PacketResponder 2 for block blk_6657174239119894644 terminating
12572	081109 203726 190 INFO dfs.DataNode$PacketResponder: Received block blk_-6653557694518759805 of size 67108864 from /10.251.30.179
12573	081109 203726 190 INFO dfs.DataNode$PacketResponder: Received block blk_6657174239119894644 of size 67108864 from /10.250.6.191
12574	081109 203726 191 INFO dfs.DataNode$PacketResponder: PacketResponder 1 for block blk_6299601060562277410 terminating
12575	081109 203726 191 INFO dfs.DataNode$PacketResponder: PacketResponder 2 for block blk_-6653557694518759805 terminating
12576	081109 203726 191 INFO dfs.DataNode$PacketResponder: Received block blk_6299601060562277410 of size 67108864 from /10.250.6.223
12577	081109 203726 191 INFO dfs.DataNode$PacketResponder: Received block blk_-6653557694518759805 of size 67108864 from /10.251.91.229
12578	081109 203726 196 INFO dfs.DataNode$PacketResponder: PacketResponder 0 for block blk_-3620130116081708382 terminating
12579	081109 203726 197 INFO dfs.DataNode$PacketResponder: PacketResponder 1 for block blk_2224907527715374983 terminating
12580	081109 203726 197 INFO dfs.DataNode$PacketResponder: PacketResponder 1 for block blk_-7311877763840212450 terminating
12581	081109 203726 197 INFO dfs.DataNode$PacketResponder: PacketResponder 2 for block blk_5853420733337427946 terminating
12582	081109 203726 197 INFO dfs.DataNode$PacketResponder: Received block blk_2224907527715374983 of size 67108864 from /10.251.202.209
12583	081109 203726 197 INFO dfs.DataNode$PacketResponder: Received block blk_5853420733337427946 of size 67108864 from /10.251.26.131
12584	081109 203726 197 INFO dfs.DataNode$PacketResponder: Received block blk_-7311877763840212450 of size 67108864 from /10.251.91.84
12585	081109 203726 198 INFO dfs.DataNode$PacketResponder: PacketResponder 0 for block blk_71358664454240061 terminating
12586	081109 203726 198 INFO dfs.DataNode$PacketResponder: PacketResponder 1 for block blk_6657174239119894644 terminating
12587	081109 203726 198 INFO dfs.DataNode$PacketResponder: Received block blk_6657174239119894644 of size 67108864 from /10.250.6.191
12588	081109 203726 198 INFO dfs.DataNode$PacketResponder: Received block blk_71358664454240061 of size 67108864 from /10.251.43.115
12589	081109 203726 199 INFO dfs.DataNode$PacketResponder: PacketResponder 1 for block blk_3794317127404700707 terminating
12590	081109 203726 199 INFO dfs.DataNode$PacketResponder: PacketResponder 1 for block blk_5853420733337427946 terminating
12591	081109 203726 199 INFO dfs.DataNode$PacketResponder: Received block blk_3794317127404700707 of size 67108864 from /10.251.195.52
12592	081109 203726 199 INFO dfs.DataNode$PacketResponder: Received block blk_5853420733337427946 of size 67108864 from /10.251.26.131
12593	081109 203726 200 INFO dfs.DataNode$PacketResponder: PacketResponder 0 for block blk_2224907527715374983 terminating
12594	081109 203726 200 INFO dfs.DataNode$PacketResponder: PacketResponder 0 for block blk_6657174239119894644 terminating
12595	081109 203726 200 INFO dfs.DataNode$PacketResponder: PacketResponder 2 for block blk_-3620130116081708382 terminating
12596	081109 203726 200 INFO dfs.DataNode$PacketResponder: Received block blk_2224907527715374983 of size 67108864 from /10.251.90.134
12597	081109 203726 200 INFO dfs.DataNode$PacketResponder: Received block blk_-3620130116081708382 of size 67108864 from /10.250.6.4
12598	081109 203726 200 INFO dfs.DataNode$PacketResponder: Received block blk_6657174239119894644 of size 67108864 from /10.251.127.191
12599	081109 203726 201 INFO dfs.DataNode$PacketResponder: PacketResponder 2 for block blk_6299601060562277410 terminating
12600	081109 203726 201 INFO dfs.DataNode$PacketResponder: Received block blk_6299601060562277410 of size 67108864 from /10.250.6.223
12601	081109 203726 202 INFO dfs.DataNode$PacketResponder: PacketResponder 2 for block blk_2224907527715374983 terminating
12602	081109 203726 202 INFO dfs.DataNode$PacketResponder: PacketResponder 2 for block blk_-8215836495994996145 terminating
12603	081109 203726 202 INFO dfs.DataNode$PacketResponder: Received block blk_2224907527715374983 of size 67108864 from /10.251.202.209
12604	081109 203726 202 INFO dfs.DataNode$PacketResponder: Received block blk_-8215836495994996145 of size 67108864 from /10.251.75.163
12605	081109 203726 203 INFO dfs.DataNode$PacketResponder: PacketResponder 0 for block blk_3794317127404700707 terminating
12606	081109 203726 203 INFO dfs.DataNode$PacketResponder: Received block blk_3794317127404700707 of size 67108864 from /10.251.122.79
12607	081109 203726 204 INFO dfs.DataNode$PacketResponder: PacketResponder 0 for block blk_-8215836495994996145 terminating
12608	081109 203726 204 INFO dfs.DataNode$PacketResponder: PacketResponder 2 for block blk_-4753783660294567604 terminating
12609	081109 203726 204 INFO dfs.DataNode$PacketResponder: Received block blk_-4753783660294567604 of size 67108864 from /10.251.203.179
12610	081109 203726 204 INFO dfs.DataNode$PacketResponder: Received block blk_-8215836495994996145 of size 67108864 from /10.251.39.242
12611	081109 203726 205 INFO dfs.DataNode$PacketResponder: PacketResponder 0 for block blk_3775375435301411733 terminating
12612	081109 203726 205 INFO dfs.DataNode$PacketResponder: PacketResponder 1 for block blk_3775375435301411733 terminating
12613	081109 203726 205 INFO dfs.DataNode$PacketResponder: Received block blk_3775375435301411733 of size 67108864 from /10.250.5.237
12614	081109 203726 205 INFO dfs.DataNode$PacketResponder: Received block blk_3775375435301411733 of size 67108864 from /10.251.31.5
12615	081109 203726 206 INFO dfs.DataNode$PacketResponder: PacketResponder 2 for block blk_6449160132965780136 terminating
12616	081109 203726 206 INFO dfs.DataNode$PacketResponder: Received block blk_6449160132965780136 of size 67108864 from /10.251.214.225
12617	081109 203726 207 INFO dfs.DataNode$PacketResponder: PacketResponder 0 for block blk_-3304629641133482436 terminating
12618	081109 203726 207 INFO dfs.DataNode$PacketResponder: Received block blk_-3304629641133482436 of size 67108864 from /10.251.73.188
12619	081109 203726 210 INFO dfs.DataNode$PacketResponder: PacketResponder 1 for block blk_-8215836495994996145 terminating
12620	081109 203726 210 INFO dfs.DataNode$PacketResponder: Received block blk_-8215836495994996145 of size 67108864 from /10.251.75.163
12621	081109 203726 211 INFO dfs.DataNode$PacketResponder: PacketResponder 0 for block blk_5853420733337427946 terminating
12622	081109 203726 211 INFO dfs.DataNode$PacketResponder: Received block blk_5853420733337427946 of size 67108864 from /10.251.126.83
12623	081109 203726 212 INFO dfs.DataNode$PacketResponder: PacketResponder 1 for block blk_6449160132965780136 terminating
12624	081109 203726 212 INFO dfs.DataNode$PacketResponder: Received block blk_6449160132965780136 of size 67108864 from /10.251.214.225
12625	081109 203726 213 INFO dfs.DataNode$PacketResponder: PacketResponder 1 for block blk_-3304629641133482436 terminating
12626	081109 203726 213 INFO dfs.DataNode$PacketResponder: Received block blk_-3304629641133482436 of size 67108864 from /10.250.15.198
12627	081109 203726 214 INFO dfs.DataNode$DataXceiver: Receiving block blk_-3535745697875280072 src: /10.250.10.223:52210 dest: /10.250.10.223:50010
12628	081109 203726 215 INFO dfs.DataNode$DataXceiver: Receiving block blk_-1960867505998358789 src: /10.250.7.32:48867 dest: /10.250.7.32:50010
12629	081109 203726 215 INFO dfs.DataNode$DataXceiver: Receiving block blk_4894604749909493419 src: /10.251.203.179:52201 dest: /10.251.203.179:50010
12630	081109 203726 215 INFO dfs.DataNode$DataXceiver: Receiving block blk_-5758400055570531686 src: /10.251.214.225:53354 dest: /10.251.214.225:50010
12631	081109 203726 215 INFO dfs.DataNode$DataXceiver: Receiving block blk_-5758400055570531686 src: /10.251.214.225:55777 dest: /10.251.214.225:50010
12632	081109 203726 217 INFO dfs.DataNode$DataXceiver: Receiving block blk_5468541794269890255 src: /10.250.11.85:60798 dest: /10.250.11.85:50010
12633	081109 203726 219 INFO dfs.DataNode$DataXceiver: Receiving block blk_-1947190431040168717 src: /10.251.26.131:58431 dest: /10.251.26.131:50010
12634	081109 203726 219 INFO dfs.DataNode$DataXceiver: Receiving block blk_4894604749909493419 src: /10.251.203.179:48666 dest: /10.251.203.179:50010
12635	081109 203726 219 INFO dfs.DataNode$DataXceiver: Receiving block blk_5468541794269890255 src: /10.251.43.115:53004 dest: /10.251.43.115:50010
12636	081109 203726 221 INFO dfs.DataNode$DataXceiver: Receiving block blk_-4989632151902114092 src: /10.251.71.68:59109 dest: /10.251.71.68:50010
12637	081109 203726 221 INFO dfs.DataNode$DataXceiver: Receiving block blk_-6304142085174265203 src: /10.250.6.223:41452 dest: /10.250.6.223:50010
12638	081109 203726 222 INFO dfs.DataNode$DataXceiver: Receiving block blk_6904892502923938951 src: /10.250.6.191:33638 dest: /10.250.6.191:50010
12639	081109 203726 222 INFO dfs.DataNode$PacketResponder: PacketResponder 2 for block blk_3775375435301411733 terminating
12640	081109 203726 222 INFO dfs.DataNode$PacketResponder: Received block blk_3775375435301411733 of size 67108864 from /10.251.31.5
12641	081109 203726 223 INFO dfs.DataNode$DataXceiver: Receiving block blk_5468541794269890255 src: /10.251.43.115:44061 dest: /10.251.43.115:50010
12642	081109 203726 224 INFO dfs.DataNode$DataXceiver: Receiving block blk_2036925106357831642 src: /10.251.122.38:50679 dest: /10.251.122.38:50010
12643	081109 203726 224 INFO dfs.DataNode$DataXceiver: Receiving block blk_4894604749909493419 src: /10.250.15.198:47147 dest: /10.250.15.198:50010
12644	081109 203726 224 INFO dfs.DataNode$DataXceiver: Receiving block blk_6904892502923938951 src: /10.250.6.191:58709 dest: /10.250.6.191:50010
12645	081109 203726 225 INFO dfs.DataNode$DataXceiver: Receiving block blk_5038240079088975938 src: /10.251.126.83:35461 dest: /10.251.126.83:50010
12646	081109 203726 225 INFO dfs.DataNode$DataXceiver: Receiving block blk_7625398605863794410 src: /10.251.202.209:39671 dest: /10.251.202.209:50010
12647	081109 203726 226 INFO dfs.DataNode$DataXceiver: Receiving block blk_4632581286229128494 src: /10.251.91.229:37071 dest: /10.251.91.229:50010
12648	081109 203726 226 INFO dfs.DataNode$DataXceiver: Receiving block blk_-5758400055570531686 src: /10.250.18.114:52287 dest: /10.250.18.114:50010
12649	081109 203726 227 INFO dfs.DataNode$DataXceiver: Receiving block blk_-6003146599249402798 src: /10.251.39.179:39652 dest: /10.251.39.179:50010
12650	081109 203726 227 INFO dfs.DataNode$PacketResponder: PacketResponder 0 for block blk_6299601060562277410 terminating
12651	081109 203726 227 INFO dfs.DataNode$PacketResponder: Received block blk_6299601060562277410 of size 67108864 from /10.250.14.143
12652	081109 203726 228 INFO dfs.DataNode$DataXceiver: Receiving block blk_-4989632151902114092 src: /10.251.71.68:54423 dest: /10.251.71.68:50010
12653	081109 203726 228 INFO dfs.DataNode$DataXceiver: Receiving block blk_-5704207942264656243 src: /10.250.6.4:42260 dest: /10.250.6.4:50010
12654	081109 203726 229 INFO dfs.DataNode$DataXceiver: Receiving block blk_4360614458265238761 src: /10.251.67.225:45577 dest: /10.251.67.225:50010
12655	081109 203726 229 INFO dfs.DataNode$DataXceiver: Receiving block blk_-6003146599249402798 src: /10.251.199.150:42817 dest: /10.251.199.150:50010
12656	081109 203726 231 INFO dfs.DataNode$DataXceiver: Receiving block blk_6234382026295468952 src: /10.251.70.211:59656 dest: /10.251.70.211:50010
12657	081109 203726 231 INFO dfs.DataNode$DataXceiver: Receiving block blk_-9162656199001154940 src: /10.251.25.237:37707 dest: /10.251.25.237:50010
12658	081109 203726 234 INFO dfs.DataNode$DataXceiver: Receiving block blk_5890146161807657166 src: /10.251.111.80:56526 dest: /10.251.111.80:50010
12659	081109 203726 237 INFO dfs.DataNode$DataXceiver: Receiving block blk_-2204565043490841052 src: /10.251.43.115:53953 dest: /10.251.43.115:50010
12660	081109 203726 241 INFO dfs.DataNode$DataXceiver: Receiving block blk_-7474012484907592424 src: /10.251.31.5:53783 dest: /10.251.31.5:50010
12661	081109 203726 249 INFO dfs.DataNode$DataXceiver: Receiving block blk_-7558405665651817421 src: /10.250.10.213:56303 dest: /10.250.10.213:50010
12662	081109 203726 257 INFO dfs.DataNode$PacketResponder: PacketResponder 2 for block blk_71358664454240061 terminating
12663	081109 203726 257 INFO dfs.DataNode$PacketResponder: Received block blk_71358664454240061 of size 67108864 from /10.251.39.179
12664	081109 203726 26 INFO dfs.FSNamesystem: BLOCK* NameSystem.addStoredBlock: blockMap updated: 10.251.31.5:50010 is added to blk_3775375435301411733 size 67108864
12665	081109 203726 26 INFO dfs.FSNamesystem: BLOCK* NameSystem.addStoredBlock: blockMap updated: 10.251.39.242:50010 is added to blk_-8215836495994996145 size 67108864
12666	081109 203726 26 INFO dfs.FSNamesystem: BLOCK* NameSystem.addStoredBlock: blockMap updated: 10.251.91.84:50010 is added to blk_-7311877763840212450 size 67108864
12667	081109 203726 26 INFO dfs.FSNamesystem: BLOCK* NameSystem.allocateBlock: /user/root/rand/_temporary/_task_200811092030_0001_m_000274_0/part-00274. blk_-6003146599249402798
12668	081109 203726 27 INFO dfs.FSNamesystem: BLOCK* NameSystem.addStoredBlock: blockMap updated: 10.251.122.65:50010 is added to blk_-7644485990528150829 size 67108864
12669	081109 203726 27 INFO dfs.FSNamesystem: BLOCK* NameSystem.addStoredBlock: blockMap updated: 10.251.198.33:50010 is added to blk_-3304629641133482436 size 67108864
12670	081109 203726 27 INFO dfs.FSNamesystem: BLOCK* NameSystem.addStoredBlock: blockMap updated: 10.251.215.50:50010 is added to blk_-8215836495994996145 size 67108864
12671	081109 203726 27 INFO dfs.FSNamesystem: BLOCK* NameSystem.addStoredBlock: blockMap updated: 10.251.43.115:50010 is added to blk_-3783593332169000834 size 67108864
12672	081109 203726 27 INFO dfs.FSNamesystem: BLOCK* NameSystem.allocateBlock: /user/root/rand/_temporary/_task_200811092030_0001_m_000084_0/part-00084. blk_-7474012484907592424
12673	081109 203726 27 INFO dfs.FSNamesystem: BLOCK* NameSystem.allocateBlock: /user/root/rand/_temporary/_task_200811092030_0001_m_000340_0/part-00340. blk_4632581286229128494
12674	081109 203726 287 INFO dfs.DataNode$DataXceiver: Receiving block blk_-6003146599249402798 src: /10.251.39.179:60404 dest: /10.251.39.179:50010
12675	081109 203726 28 INFO dfs.FSNamesystem: BLOCK* NameSystem.addStoredBlock: blockMap updated: 10.251.107.196:50010 is added to blk_2224907527715374983 size 67108864
12676	081109 203726 28 INFO dfs.FSNamesystem: BLOCK* NameSystem.addStoredBlock: blockMap updated: 10.251.214.225:50010 is added to blk_6449160132965780136 size 67108864
12677	081109 203726 296 INFO dfs.DataNode$DataXceiver: Receiving block blk_6234382026295468952 src: /10.251.71.146:37668 dest: /10.251.71.146:50010
12678	081109 203726 29 INFO dfs.FSNamesystem: BLOCK* NameSystem.addStoredBlock: blockMap updated: 10.250.6.223:50010 is added to blk_6299601060562277410 size 67108864
12679	081109 203726 29 INFO dfs.FSNamesystem: BLOCK* NameSystem.addStoredBlock: blockMap updated: 10.251.126.83:50010 is added to blk_3775375435301411733 size 67108864
12680	081109 203726 29 INFO dfs.FSNamesystem: BLOCK* NameSystem.addStoredBlock: blockMap updated: 10.251.126.83:50010 is added to blk_-7644485990528150829 size 67108864
12681	081109 203726 29 INFO dfs.FSNamesystem: BLOCK* NameSystem.addStoredBlock: blockMap updated: 10.251.30.179:50010 is added to blk_-6653557694518759805 size 67108864
12682	081109 203726 29 INFO dfs.FSNamesystem: BLOCK* NameSystem.allocateBlock: /user/root/rand/_temporary/_task_200811092030_0001_m_000199_0/part-00199. blk_-5704207942264656243
12683	081109 203726 30 INFO dfs.FSNamesystem: BLOCK* NameSystem.addStoredBlock: blockMap updated: 10.250.19.16:50010 is added to blk_-7311877763840212450 size 67108864
12684	081109 203726 30 INFO dfs.FSNamesystem: BLOCK* NameSystem.addStoredBlock: blockMap updated: 10.250.6.4:50010 is added to blk_-3620130116081708382 size 67108864
12685	081109 203726 30 INFO dfs.FSNamesystem: BLOCK* NameSystem.allocateBlock: /user/root/rand/_temporary/_task_200811092030_0001_m_000125_0/part-00125. blk_-5758400055570531686
12686	081109 203726 30 INFO dfs.FSNamesystem: BLOCK* NameSystem.allocateBlock: /user/root/rand/_temporary/_task_200811092030_0001_m_000390_0/part-00390. blk_-6304142085174265203
12687	081109 203726 31 INFO dfs.FSNamesystem: BLOCK* NameSystem.addStoredBlock: blockMap updated: 10.250.5.237:50010 is added to blk_3775375435301411733 size 67108864
12688	081109 203726 31 INFO dfs.FSNamesystem: BLOCK* NameSystem.addStoredBlock: blockMap updated: 10.251.121.224:50010 is added to blk_-6653557694518759805 size 67108864
12689	081109 203726 31 INFO dfs.FSNamesystem: BLOCK* NameSystem.addStoredBlock: blockMap updated: 10.251.126.255:50010 is added to blk_5435795890716266026 size 67108864
12690	081109 203726 31 INFO dfs.FSNamesystem: BLOCK* NameSystem.addStoredBlock: blockMap updated: 10.251.127.191:50010 is added to blk_6657174239119894644 size 67108864
12691	081109 203726 31 INFO dfs.FSNamesystem: BLOCK* NameSystem.addStoredBlock: blockMap updated: 10.251.39.179:50010 is added to blk_71358664454240061 size 67108864
12692	081109 203726 31 INFO dfs.FSNamesystem: BLOCK* NameSystem.addStoredBlock: blockMap updated: 10.251.90.134:50010 is added to blk_2224907527715374983 size 67108864
12693	081109 203726 31 INFO dfs.FSNamesystem: BLOCK* NameSystem.addStoredBlock: blockMap updated: 10.251.90.134:50010 is added to blk_-7311877763840212450 size 67108864
12694	081109 203726 32 INFO dfs.FSNamesystem: BLOCK* NameSystem.addStoredBlock: blockMap updated: 10.251.122.79:50010 is added to blk_3794317127404700707 size 67108864
12695	081109 203726 32 INFO dfs.FSNamesystem: BLOCK* NameSystem.addStoredBlock: blockMap updated: 10.251.198.196:50010 is added to blk_3794317127404700707 size 67108864
12696	081109 203726 32 INFO dfs.FSNamesystem: BLOCK* NameSystem.addStoredBlock: blockMap updated: 10.251.91.229:50010 is added to blk_-6653557694518759805 size 67108864
12697	081109 203726 33 INFO dfs.FSNamesystem: BLOCK* NameSystem.addStoredBlock: blockMap updated: 10.250.6.191:50010 is added to blk_6657174239119894644 size 67108864
12698	081109 203726 33 INFO dfs.FSNamesystem: BLOCK* NameSystem.addStoredBlock: blockMap updated: 10.251.107.242:50010 is added to blk_6449160132965780136 size 67108864
12699	081109 203726 33 INFO dfs.FSNamesystem: BLOCK* NameSystem.addStoredBlock: blockMap updated: 10.251.71.68:50010 is added to blk_5435795890716266026 size 67108864
12700	081109 203726 33 INFO dfs.FSNamesystem: BLOCK* NameSystem.addStoredBlock: blockMap updated: 10.251.75.163:50010 is added to blk_-8215836495994996145 size 67108864
12701	081109 203726 33 INFO dfs.FSNamesystem: BLOCK* NameSystem.addStoredBlock: blockMap updated: 10.251.89.155:50010 is added to blk_-7644485990528150829 size 67108864
12702	081109 203726 33 INFO dfs.FSNamesystem: BLOCK* NameSystem.allocateBlock: /user/root/rand/_temporary/_task_200811092030_0001_m_000225_0/part-00225. blk_5038240079088975938
12703	081109 203726 33 INFO dfs.FSNamesystem: BLOCK* NameSystem.allocateBlock: /user/root/rand/_temporary/_task_200811092030_0001_m_000342_0/part-00342. blk_-4989632151902114092
12704	081109 203726 34 INFO dfs.FSNamesystem: BLOCK* NameSystem.addStoredBlock: blockMap updated: 10.250.14.143:50010 is added to blk_6299601060562277410 size 67108864
12705	081109 203726 34 INFO dfs.FSNamesystem: BLOCK* NameSystem.allocateBlock: /user/root/rand/_temporary/_task_200811092030_0001_m_000253_0/part-00253. blk_6904892502923938951
12706	081109 203726 34 INFO dfs.FSNamesystem: BLOCK* NameSystem.allocateBlock: /user/root/rand/_temporary/_task_200811092030_0001_m_000326_0/part-00326. blk_7625398605863794410
12707	081109 203726 34 INFO dfs.FSNamesystem: BLOCK* NameSystem.allocateBlock: /user/root/rand/_temporary/_task_200811092030_0001_m_000396_0/part-00396. blk_4894604749909493419
12708	081109 203726 35 INFO dfs.FSNamesystem: BLOCK* NameSystem.addStoredBlock: blockMap updated: 10.250.7.230:50010 is added to blk_6449160132965780136 size 67108864
12709	081109 203726 35 INFO dfs.FSNamesystem: BLOCK* NameSystem.addStoredBlock: blockMap updated: 10.251.109.236:50010 is added to blk_6657174239119894644 size 67108864
12710	081109 203726 35 INFO dfs.FSNamesystem: BLOCK* NameSystem.addStoredBlock: blockMap updated: 10.251.202.209:50010 is added to blk_2224907527715374983 size 67108864
12711	081109 203726 35 INFO dfs.FSNamesystem: BLOCK* NameSystem.addStoredBlock: blockMap updated: 10.251.203.179:50010 is added to blk_-4753783660294567604 size 67108864
12712	081109 203726 35 INFO dfs.FSNamesystem: BLOCK* NameSystem.addStoredBlock: blockMap updated: 10.251.43.115:50010 is added to blk_71358664454240061 size 67108864
12713	081109 203726 35 INFO dfs.FSNamesystem: BLOCK* NameSystem.addStoredBlock: blockMap updated: 10.251.91.159:50010 is added to blk_71358664454240061 size 67108864
12714	081109 203727 13 INFO dfs.DataBlockScanner: Verification succeeded for blk_-7686748181966193443
12715	081109 203727 184 INFO dfs.DataNode$PacketResponder: PacketResponder 1 for block blk_-5281652609560910153 terminating
12716	081109 203727 184 INFO dfs.DataNode$PacketResponder: Received block blk_-5281652609560910153 of size 67108864 from /10.251.197.226
12717	081109 203727 186 INFO dfs.DataNode$PacketResponder: PacketResponder 2 for block blk_1763907258501437751 terminating
12718	081109 203727 186 INFO dfs.DataNode$PacketResponder: Received block blk_1763907258501437751 of size 67108864 from /10.251.203.149
12719	081109 203727 187 INFO dfs.DataNode$PacketResponder: PacketResponder 0 for block blk_1763907258501437751 terminating
12720	081109 203727 187 INFO dfs.DataNode$PacketResponder: PacketResponder 1 for block blk_-1610188518003877647 terminating
12721	081109 203727 187 INFO dfs.DataNode$PacketResponder: Received block blk_-1610188518003877647 of size 67108864 from /10.251.127.243
12722	081109 203727 187 INFO dfs.DataNode$PacketResponder: Received block blk_1763907258501437751 of size 67108864 from /10.251.89.155
12723	081109 203727 189 INFO dfs.DataNode$PacketResponder: PacketResponder 1 for block blk_1763907258501437751 terminating
12724	081109 203727 189 INFO dfs.DataNode$PacketResponder: PacketResponder 2 for block blk_-1610188518003877647 terminating
12725	081109 203727 189 INFO dfs.DataNode$PacketResponder: Received block blk_-1610188518003877647 of size 67108864 from /10.251.127.243
12726	081109 203727 189 INFO dfs.DataNode$PacketResponder: Received block blk_1763907258501437751 of size 67108864 from /10.251.203.149
12727	081109 203727 190 INFO dfs.DataNode$PacketResponder: PacketResponder 2 for block blk_-800622121569571679 terminating
12728	081109 203727 190 INFO dfs.DataNode$PacketResponder: PacketResponder 2 for block blk_-8351324667986910703 terminating
12729	081109 203727 190 INFO dfs.DataNode$PacketResponder: Received block blk_-800622121569571679 of size 67108864 from /10.251.194.102
12730	081109 203727 190 INFO dfs.DataNode$PacketResponder: Received block blk_-8351324667986910703 of size 67108864 from /10.251.26.8
12731	081109 203727 193 INFO dfs.DataNode$PacketResponder: PacketResponder 0 for block blk_-5281652609560910153 terminating
12732	081109 203727 193 INFO dfs.DataNode$PacketResponder: Received block blk_-5281652609560910153 of size 67108864 from /10.251.198.196
12733	081109 203727 194 INFO dfs.DataNode$PacketResponder: PacketResponder 1 for block blk_-800622121569571679 terminating
12734	081109 203727 194 INFO dfs.DataNode$PacketResponder: PacketResponder 2 for block blk_3794317127404700707 terminating
12735	081109 203727 194 INFO dfs.DataNode$PacketResponder: PacketResponder 2 for block blk_-7672156841616524772 terminating
12736	081109 203727 194 INFO dfs.DataNode$PacketResponder: Received block blk_3794317127404700707 of size 67108864 from /10.251.195.52
12737	081109 203727 194 INFO dfs.DataNode$PacketResponder: Received block blk_-7672156841616524772 of size 67108864 from /10.251.67.211
12738	081109 203727 194 INFO dfs.DataNode$PacketResponder: Received block blk_-800622121569571679 of size 67108864 from /10.251.194.102
12739	081109 203727 196 INFO dfs.DataNode$PacketResponder: PacketResponder 1 for block blk_-8344369764096766543 terminating
12740	081109 203727 196 INFO dfs.DataNode$PacketResponder: Received block blk_-8344369764096766543 of size 67108864 from /10.250.15.240
12741	081109 203727 197 INFO dfs.DataNode$PacketResponder: PacketResponder 0 for block blk_-8344369764096766543 terminating
12742	081109 203727 197 INFO dfs.DataNode$PacketResponder: Received block blk_-8344369764096766543 of size 67108864 from /10.251.25.237
12743	081109 203727 198 INFO dfs.DataNode$PacketResponder: PacketResponder 1 for block blk_-8351324667986910703 terminating
12744	081109 203727 198 INFO dfs.DataNode$PacketResponder: Received block blk_-8351324667986910703 of size 67108864 from /10.251.26.8
12745	081109 203727 199 INFO dfs.DataNode$PacketResponder: PacketResponder 1 for block blk_-4577193670204126134 terminating
12746	081109 203727 199 INFO dfs.DataNode$PacketResponder: PacketResponder 1 for block blk_-7672156841616524772 terminating
12747	081109 203727 199 INFO dfs.DataNode$PacketResponder: Received block blk_-4577193670204126134 of size 67108864 from /10.251.110.68
12748	081109 203727 199 INFO dfs.DataNode$PacketResponder: Received block blk_-7672156841616524772 of size 67108864 from /10.251.67.211
12749	081109 203727 200 INFO dfs.DataNode$PacketResponder: PacketResponder 1 for block blk_-5965876303758897519 terminating
12750	081109 203727 200 INFO dfs.DataNode$PacketResponder: PacketResponder 1 for block blk_-8854582580171527305 terminating
12751	081109 203727 200 INFO dfs.DataNode$PacketResponder: Received block blk_-5965876303758897519 of size 67108864 from /10.251.90.64
12752	081109 203727 200 INFO dfs.DataNode$PacketResponder: Received block blk_-8854582580171527305 of size 67108864 from /10.251.126.227
12753	081109 203727 201 INFO dfs.DataNode$PacketResponder: PacketResponder 0 for block blk_-800622121569571679 terminating
12754	081109 203727 201 INFO dfs.DataNode$PacketResponder: PacketResponder 2 for block blk_-8854582580171527305 terminating
12755	081109 203727 201 INFO dfs.DataNode$PacketResponder: Received block blk_-800622121569571679 of size 67108864 from /10.251.109.236
12756	081109 203727 201 INFO dfs.DataNode$PacketResponder: Received block blk_-8854582580171527305 of size 67108864 from /10.251.126.227
12757	081109 203727 202 INFO dfs.DataNode$PacketResponder: PacketResponder 0 for block blk_-8991036737161674736 terminating
12758	081109 203727 202 INFO dfs.DataNode$PacketResponder: PacketResponder 1 for block blk_3169038892931358557 terminating
12759	081109 203727 202 INFO dfs.DataNode$PacketResponder: PacketResponder 2 for block blk_-8991036737161674736 terminating
12760	081109 203727 202 INFO dfs.DataNode$PacketResponder: Received block blk_3169038892931358557 of size 67108864 from /10.251.65.203
12761	081109 203727 202 INFO dfs.DataNode$PacketResponder: Received block blk_-8991036737161674736 of size 67108864 from /10.250.14.224
12762	081109 203727 202 INFO dfs.DataNode$PacketResponder: Received block blk_-8991036737161674736 of size 67108864 from /10.251.38.53
12763	081109 203727 203 INFO dfs.DataNode$PacketResponder: PacketResponder 0 for block blk_-1610188518003877647 terminating
12764	081109 203727 203 INFO dfs.DataNode$PacketResponder: Received block blk_-1610188518003877647 of size 67108864 from /10.251.43.192
12765	081109 203727 204 INFO dfs.DataNode$PacketResponder: PacketResponder 0 for block blk_-5851674849910133238 terminating
12766	081109 203727 204 INFO dfs.DataNode$PacketResponder: PacketResponder 2 for block blk_3169038892931358557 terminating
12767	081109 203727 204 INFO dfs.DataNode$PacketResponder: PacketResponder 2 for block blk_-3304629641133482436 terminating
12768	081109 203727 204 INFO dfs.DataNode$PacketResponder: PacketResponder 2 for block blk_-5965876303758897519 terminating
12769	081109 203727 204 INFO dfs.DataNode$PacketResponder: Received block blk_3169038892931358557 of size 67108864 from /10.251.65.203
12770	081109 203727 204 INFO dfs.DataNode$PacketResponder: Received block blk_-3304629641133482436 of size 67108864 from /10.250.15.198
12771	081109 203727 204 INFO dfs.DataNode$PacketResponder: Received block blk_-5851674849910133238 of size 67108864 from /10.251.67.113
12772	081109 203727 204 INFO dfs.DataNode$PacketResponder: Received block blk_-5965876303758897519 of size 67108864 from /10.251.90.64
12773	081109 203727 206 INFO dfs.DataNode$PacketResponder: PacketResponder 0 for block blk_-5965876303758897519 terminating
12774	081109 203727 206 INFO dfs.DataNode$PacketResponder: Received block blk_-5965876303758897519 of size 67108864 from /10.250.13.188
12775	081109 203727 207 INFO dfs.DataNode$PacketResponder: PacketResponder 0 for block blk_3169038892931358557 terminating
12776	081109 203727 207 INFO dfs.DataNode$PacketResponder: Received block blk_3169038892931358557 of size 67108864 from /10.251.35.1
12777	081109 203727 208 INFO dfs.DataNode$PacketResponder: PacketResponder 0 for block blk_-8854582580171527305 terminating
12778	081109 203727 208 INFO dfs.DataNode$PacketResponder: Received block blk_-8854582580171527305 of size 67108864 from /10.250.14.143
12779	081109 203727 216 INFO dfs.DataNode$DataXceiver: Receiving block blk_-6343486872402960301 src: /10.251.67.211:43762 dest: /10.251.67.211:50010
12780	081109 203727 216 INFO dfs.DataNode$DataXceiver: Receiving block blk_8883421416344642148 src: /10.250.14.38:43152 dest: /10.250.14.38:50010
12781	081109 203727 217 INFO dfs.DataNode$DataXceiver: Receiving block blk_2036925106357831642 src: /10.251.66.192:41836 dest: /10.251.66.192:50010
12782	081109 203727 217 INFO dfs.DataNode$DataXceiver: Receiving block blk_-3177524613160405610 src: /10.251.126.227:45010 dest: /10.251.126.227:50010
12783	081109 203727 217 INFO dfs.DataNode$DataXceiver: Receiving block blk_3202793887240026498 src: /10.251.194.102:43682 dest: /10.251.194.102:50010
12784	081109 203727 217 INFO dfs.DataNode$DataXceiver: Receiving block blk_3644589028179739497 src: /10.251.195.52:34797 dest: /10.251.195.52:50010
12785	081109 203727 218 INFO dfs.DataNode$DataXceiver: Receiving block blk_-1947190431040168717 src: /10.250.10.144:35102 dest: /10.250.10.144:50010
12786	081109 203727 218 INFO dfs.DataNode$DataXceiver: Receiving block blk_-198164242451546164 src: /10.251.194.147:38208 dest: /10.251.194.147:50010
12787	081109 203727 218 INFO dfs.DataNode$DataXceiver: Receiving block blk_-2204565043490841052 src: /10.251.91.159:42687 dest: /10.251.91.159:50010
12788	081109 203727 218 INFO dfs.DataNode$DataXceiver: Receiving block blk_3644589028179739497 src: /10.251.195.52:54577 dest: /10.251.195.52:50010
12789	081109 203727 218 INFO dfs.DataNode$DataXceiver: Receiving block blk_-4545249265623052954 src: /10.251.127.243:46805 dest: /10.251.127.243:50010
12790	081109 203727 219 INFO dfs.DataNode$DataXceiver: Receiving block blk_1288151332965298521 src: /10.251.203.149:51790 dest: /10.251.203.149:50010
12791	081109 203727 219 INFO dfs.DataNode$DataXceiver: Receiving block blk_3146336002919263055 src: /10.251.75.163:41897 dest: /10.251.75.163:50010
12792	081109 203727 220 INFO dfs.DataNode$DataXceiver: Receiving block blk_-198164242451546164 src: /10.251.65.203:37022 dest: /10.251.65.203:50010
12793	081109 203727 220 INFO dfs.DataNode$DataXceiver: Receiving block blk_2897359511663799170 src: /10.251.38.53:52677 dest: /10.251.38.53:50010
12794	081109 203727 220 INFO dfs.DataNode$DataXceiver: Receiving block blk_-8157058036207611910 src: /10.251.198.33:58069 dest: /10.251.198.33:50010
12795	081109 203727 220 INFO dfs.DataNode$DataXceiver: Receiving block blk_-8157058036207611910 src: /10.251.91.84:59245 dest: /10.251.91.84:50010
12796	081109 203727 220 INFO dfs.DataNode$PacketResponder: PacketResponder 0 for block blk_-7672156841616524772 terminating
12797	081109 203727 220 INFO dfs.DataNode$PacketResponder: Received block blk_-7672156841616524772 of size 67108864 from /10.251.30.101
12798	081109 203727 221 INFO dfs.DataNode$DataXceiver: Receiving block blk_-198164242451546164 src: /10.251.65.203:50112 dest: /10.251.65.203:50010
12799	081109 203727 221 INFO dfs.DataNode$DataXceiver: Receiving block blk_-4336696823570809101 src: /10.251.26.8:39260 dest: /10.251.26.8:50010
12800	081109 203727 221 INFO dfs.DataNode$DataXceiver: Receiving block blk_4632581286229128494 src: /10.251.91.229:54025 dest: /10.251.91.229:50010
12801	081109 203727 221 INFO dfs.DataNode$DataXceiver: Receiving block blk_6904892502923938951 src: /10.251.70.112:43496 dest: /10.251.70.112:50010
12802	081109 203727 222 INFO dfs.DataNode$DataXceiver: Receiving block blk_1288151332965298521 src: /10.251.203.149:53988 dest: /10.251.203.149:50010
12803	081109 203727 222 INFO dfs.DataNode$DataXceiver: Receiving block blk_-3177524613160405610 src: /10.251.126.227:47298 dest: /10.251.126.227:50010
12804	081109 203727 222 INFO dfs.DataNode$DataXceiver: Receiving block blk_3675551156013406164 src: /10.250.15.198:39331 dest: /10.250.15.198:50010
12805	081109 203727 223 INFO dfs.DataNode$DataXceiver: Receiving block blk_2897359511663799170 src: /10.251.38.53:36597 dest: /10.251.38.53:50010
12806	081109 203727 223 INFO dfs.DataNode$DataXceiver: Receiving block blk_-5704207942264656243 src: /10.250.6.4:45058 dest: /10.250.6.4:50010
12807	081109 203727 223 INFO dfs.DataNode$DataXceiver: Receiving block blk_-6304142085174265203 src: /10.250.6.223:36613 dest: /10.250.6.223:50010
12808	081109 203727 223 INFO dfs.DataNode$DataXceiver: Receiving block blk_-6343486872402960301 src: /10.250.9.207:56392 dest: /10.250.9.207:50010
12809	081109 203727 223 INFO dfs.DataNode$DataXceiver: Receiving block blk_-6343486872402960301 src: /10.251.67.211:37607 dest: /10.251.67.211:50010
12810	081109 203727 224 INFO dfs.DataNode$DataXceiver: Receiving block blk_1288151332965298521 src: /10.251.193.224:55430 dest: /10.251.193.224:50010
12811	081109 203727 224 INFO dfs.DataNode$DataXceiver: Receiving block blk_-4989632151902114092 src: /10.251.214.175:52777 dest: /10.251.214.175:50010
12812	081109 203727 224 INFO dfs.DataNode$DataXceiver: Receiving block blk_-6304142085174265203 src: /10.250.11.53:40007 dest: /10.250.11.53:50010
12813	081109 203727 225 INFO dfs.DataNode$DataXceiver: Receiving block blk_-7474012484907592424 src: /10.251.74.134:47185 dest: /10.251.74.134:50010
12814	081109 203727 226 INFO dfs.DataNode$DataXceiver: Receiving block blk_-1947190431040168717 src: /10.251.26.131:57075 dest: /10.251.26.131:50010
12815	081109 203727 226 INFO dfs.DataNode$DataXceiver: Receiving block blk_-2236131320508581157 src: /10.251.89.155:60829 dest: /10.251.89.155:50010
12816	081109 203727 226 INFO dfs.DataNode$DataXceiver: Receiving block blk_3523500992415372662 src: /10.251.127.191:55900 dest: /10.251.127.191:50010
12817	081109 203727 227 INFO dfs.DataNode$DataXceiver: Receiving block blk_3675551156013406164 src: /10.251.66.63:58621 dest: /10.251.66.63:50010
12818	081109 203727 227 INFO dfs.DataNode$DataXceiver: Receiving block blk_5038240079088975938 src: /10.251.126.83:48969 dest: /10.251.126.83:50010
12819	081109 203727 227 INFO dfs.DataNode$DataXceiver: Receiving block blk_-5704207942264656243 src: /10.251.42.191:49620 dest: /10.251.42.191:50010
12820	081109 203727 229 INFO dfs.DataNode$DataXceiver: Receiving block blk_3146336002919263055 src: /10.251.75.163:34921 dest: /10.251.75.163:50010
12821	081109 203727 229 INFO dfs.DataNode$DataXceiver: Receiving block blk_3675551156013406164 src: /10.250.15.198:58529 dest: /10.250.15.198:50010
12822	081109 203727 229 INFO dfs.DataNode$DataXceiver: Receiving block blk_7277386080338318562 src: /10.251.106.50:45492 dest: /10.251.106.50:50010
12823	081109 203727 229 INFO dfs.DataNode$PacketResponder: PacketResponder 0 for block blk_-4577193670204126134 terminating
12824	081109 203727 229 INFO dfs.DataNode$PacketResponder: Received block blk_-4577193670204126134 of size 67108864 from /10.251.35.1
12825	081109 203727 230 INFO dfs.DataNode$DataXceiver: Receiving block blk_-3535745697875280072 src: /10.251.214.225:38065 dest: /10.251.214.225:50010
12826	081109 203727 230 INFO dfs.DataNode$DataXceiver: Receiving block blk_7625398605863794410 src: /10.251.202.209:34297 dest: /10.251.202.209:50010
12827	081109 203727 231 INFO dfs.DataNode$DataXceiver: Receiving block blk_-8157058036207611910 src: /10.251.91.84:48425 dest: /10.251.91.84:50010
12828	081109 203727 232 INFO dfs.DataNode$PacketResponder: PacketResponder 1 for block blk_-8991036737161674736 terminating
12829	081109 203727 232 INFO dfs.DataNode$PacketResponder: Received block blk_-8991036737161674736 of size 67108864 from /10.251.38.53
12830	081109 203727 233 INFO dfs.DataNode$DataXceiver: Receiving block blk_-7474012484907592424 src: /10.251.31.5:37117 dest: /10.251.31.5:50010
12831	081109 203727 267 INFO dfs.DataNode$PacketResponder: PacketResponder 0 for block blk_-8351324667986910703 terminating
12832	081109 203727 267 INFO dfs.DataNode$PacketResponder: Received block blk_-8351324667986910703 of size 67108864 from /10.251.66.63
12833	081109 203727 26 INFO dfs.FSNamesystem: BLOCK* NameSystem.addStoredBlock: blockMap updated: 10.251.111.209:50010 is added to blk_-4577193670204126134 size 67108864
12834	081109 203727 26 INFO dfs.FSNamesystem: BLOCK* NameSystem.allocateBlock: /user/root/rand/_temporary/_task_200811092030_0001_m_000193_0/part-00193. blk_-4336696823570809101
12835	081109 203727 26 INFO dfs.FSNamesystem: BLOCK* NameSystem.allocateBlock: /user/root/rand/_temporary/_task_200811092030_0001_m_000371_0/part-00371. blk_3675551156013406164
12836	081109 203727 27 INFO dfs.FSNamesystem: BLOCK* NameSystem.addStoredBlock: blockMap updated: 10.251.43.192:50010 is added to blk_-1610188518003877647 size 67108864
12837	081109 203727 27 INFO dfs.FSNamesystem: BLOCK* NameSystem.addStoredBlock: blockMap updated: 10.251.73.188:50010 is added to blk_-3304629641133482436 size 67108864
12838	081109 203727 28 INFO dfs.FSNamesystem: BLOCK* NameSystem.addStoredBlock: blockMap updated: 10.251.203.4:50010 is added to blk_-800622121569571679 size 67108864
12839	081109 203727 28 INFO dfs.FSNamesystem: BLOCK* NameSystem.addStoredBlock: blockMap updated: 10.251.203.80:50010 is added to blk_5853420733337427946 size 67108864
12840	081109 203727 28 INFO dfs.FSNamesystem: BLOCK* NameSystem.addStoredBlock: blockMap updated: 10.251.35.1:50010 is added to blk_3169038892931358557 size 67108864
12841	081109 203727 28 INFO dfs.FSNamesystem: BLOCK* NameSystem.allocateBlock: /user/root/rand/_temporary/_task_200811092030_0001_m_000034_0/part-00034. blk_-3177524613160405610
12842	081109 203727 28 INFO dfs.FSNamesystem: BLOCK* NameSystem.allocateBlock: /user/root/rand/_temporary/_task_200811092030_0001_m_000210_0/part-00210. blk_3146336002919263055
12843	081109 203727 28 INFO dfs.FSNamesystem: BLOCK* NameSystem.allocateBlock: /user/root/rand/_temporary/_task_200811092030_0001_m_000380_0/part-00380. blk_3202793887240026498
12844	081109 203727 29 INFO dfs.FSNamesystem: BLOCK* NameSystem.addStoredBlock: blockMap updated: 10.251.202.181:50010 is added to blk_1763907258501437751 size 67108864
12845	081109 203727 29 INFO dfs.FSNamesystem: BLOCK* NameSystem.addStoredBlock: blockMap updated: 10.251.203.4:50010 is added to blk_5435795890716266026 size 67108864
12846	081109 203727 29 INFO dfs.FSNamesystem: BLOCK* NameSystem.addStoredBlock: blockMap updated: 10.251.26.131:50010 is added to blk_5853420733337427946 size 67108864
12847	081109 203727 29 INFO dfs.FSNamesystem: BLOCK* NameSystem.allocateBlock: /user/root/rand/_temporary/_task_200811092030_0001_m_000119_0/part-00119. blk_-198164242451546164
12848	081109 203727 29 INFO dfs.FSNamesystem: BLOCK* NameSystem.allocateBlock: /user/root/rand/_temporary/_task_200811092030_0001_m_000372_0/part-00372. blk_2897359511663799170
12849	081109 203727 30 INFO dfs.FSNamesystem: BLOCK* NameSystem.addStoredBlock: blockMap updated: 10.250.14.143:50010 is added to blk_-8854582580171527305 size 67108864
12850	081109 203727 30 INFO dfs.FSNamesystem: BLOCK* NameSystem.addStoredBlock: blockMap updated: 10.251.38.53:50010 is added to blk_-8991036737161674736 size 67108864
12851	081109 203727 30 INFO dfs.FSNamesystem: BLOCK* NameSystem.allocateBlock: /user/root/rand/_temporary/_task_200811092030_0001_m_000363_0/part-00363. blk_-8157058036207611910
12852	081109 203727 31 INFO dfs.FSNamesystem: BLOCK* NameSystem.addStoredBlock: blockMap updated: 10.251.198.196:50010 is added to blk_-5281652609560910153 size 67108864
12853	081109 203727 31 INFO dfs.FSNamesystem: BLOCK* NameSystem.addStoredBlock: blockMap updated: 10.251.25.237:50010 is added to blk_-8344369764096766543 size 67108864
12854	081109 203727 31 INFO dfs.FSNamesystem: BLOCK* NameSystem.addStoredBlock: blockMap updated: 10.251.65.203:50010 is added to blk_3169038892931358557 size 67108864
12855	081109 203727 31 INFO dfs.FSNamesystem: BLOCK* NameSystem.addStoredBlock: blockMap updated: 10.251.66.63:50010 is added to blk_-8351324667986910703 size 67108864
12856	081109 203727 31 INFO dfs.FSNamesystem: BLOCK* NameSystem.addStoredBlock: blockMap updated: 10.251.75.49:50010 is added to blk_3169038892931358557 size 67108864
12857	081109 203727 31 INFO dfs.FSNamesystem: BLOCK* NameSystem.addStoredBlock: blockMap updated: 10.251.90.64:50010 is added to blk_-5965876303758897519 size 67108864
12858	081109 203727 32 INFO dfs.FSNamesystem: BLOCK* NameSystem.addStoredBlock: blockMap updated: 10.251.126.83:50010 is added to blk_5853420733337427946 size 67108864
12859	081109 203727 32 INFO dfs.FSNamesystem: BLOCK* NameSystem.addStoredBlock: blockMap updated: 10.251.194.102:50010 is added to blk_-800622121569571679 size 67108864
12860	081109 203727 32 INFO dfs.FSNamesystem: BLOCK* NameSystem.addStoredBlock: blockMap updated: 10.251.214.18:50010 is added to blk_-8991036737161674736 size 67108864
12861	081109 203727 32 INFO dfs.FSNamesystem: BLOCK* NameSystem.allocateBlock: /user/root/rand/_temporary/_task_200811092030_0001_m_000037_0/part-00037. blk_-6343486872402960301
12862	081109 203727 32 INFO dfs.FSNamesystem: BLOCK* NameSystem.allocateBlock: /user/root/rand/_temporary/_task_200811092030_0001_m_000208_0/part-00208. blk_-6655966220924532449
12863	081109 203727 33 INFO dfs.FSNamesystem: BLOCK* NameSystem.addStoredBlock: blockMap updated: 10.250.15.67:50010 is added to blk_-5281652609560910153 size 67108864
12864	081109 203727 33 INFO dfs.FSNamesystem: BLOCK* NameSystem.addStoredBlock: blockMap updated: 10.251.195.52:50010 is added to blk_3794317127404700707 size 67108864
12865	081109 203727 33 INFO dfs.FSNamesystem: BLOCK* NameSystem.addStoredBlock: blockMap updated: 10.251.203.149:50010 is added to blk_1763907258501437751 size 67108864
12866	081109 203727 33 INFO dfs.FSNamesystem: BLOCK* NameSystem.addStoredBlock: blockMap updated: 10.251.71.193:50010 is added to blk_6299601060562277410 size 67108864
12867	081109 203727 33 INFO dfs.FSNamesystem: BLOCK* NameSystem.addStoredBlock: blockMap updated: 10.251.71.193:50010 is added to blk_-7672156841616524772 size 67108864
12868	081109 203727 34 INFO dfs.FSNamesystem: BLOCK* NameSystem.addStoredBlock: blockMap updated: 10.250.13.188:50010 is added to blk_-5965876303758897519 size 67108864
12869	081109 203727 34 INFO dfs.FSNamesystem: BLOCK* NameSystem.addStoredBlock: blockMap updated: 10.250.15.101:50010 is added to blk_-8854582580171527305 size 67108864
12870	081109 203727 34 INFO dfs.FSNamesystem: BLOCK* NameSystem.addStoredBlock: blockMap updated: 10.251.203.4:50010 is added to blk_-5965876303758897519 size 67108864
12871	081109 203727 34 INFO dfs.FSNamesystem: BLOCK* NameSystem.addStoredBlock: blockMap updated: 10.251.30.101:50010 is added to blk_-7672156841616524772 size 67108864
12872	081109 203727 34 INFO dfs.FSNamesystem: BLOCK* NameSystem.allocateBlock: /user/root/rand/_temporary/_task_200811092030_0001_m_000007_0/part-00007. blk_1288151332965298521
12873	081109 203727 34 INFO dfs.FSNamesystem: BLOCK* NameSystem.allocateBlock: /user/root/rand/_temporary/_task_200811092030_0001_m_000154_0/part-00154. blk_-1947190431040168717
12874	081109 203727 35 INFO dfs.FSNamesystem: BLOCK* NameSystem.addStoredBlock: blockMap updated: 10.250.14.224:50010 is added to blk_-8991036737161674736 size 67108864
12875	081109 203727 35 INFO dfs.FSNamesystem: BLOCK* NameSystem.addStoredBlock: blockMap updated: 10.250.15.198:50010 is added to blk_-3304629641133482436 size 67108864
12876	081109 203727 35 INFO dfs.FSNamesystem: BLOCK* NameSystem.addStoredBlock: blockMap updated: 10.251.109.236:50010 is added to blk_-800622121569571679 size 67108864
12877	081109 203727 35 INFO dfs.FSNamesystem: BLOCK* NameSystem.addStoredBlock: blockMap updated: 10.251.126.227:50010 is added to blk_-8854582580171527305 size 67108864
12878	081109 203727 35 INFO dfs.FSNamesystem: BLOCK* NameSystem.addStoredBlock: blockMap updated: 10.251.203.4:50010 is added to blk_-8344369764096766543 size 67108864
12879	081109 203727 35 INFO dfs.FSNamesystem: BLOCK* NameSystem.addStoredBlock: blockMap updated: 10.251.26.8:50010 is added to blk_-8351324667986910703 size 67108864
12880	081109 203727 35 INFO dfs.FSNamesystem: BLOCK* NameSystem.addStoredBlock: blockMap updated: 10.251.35.1:50010 is added to blk_-4577193670204126134 size 67108864
12881	081109 203727 35 INFO dfs.FSNamesystem: BLOCK* NameSystem.addStoredBlock: blockMap updated: 10.251.67.211:50010 is added to blk_-7672156841616524772 size 67108864
12882	081109 203727 35 INFO dfs.FSNamesystem: BLOCK* NameSystem.allocateBlock: /user/root/rand/_temporary/_task_200811092030_0001_m_000104_0/part-00104. blk_3644589028179739497
12883	081109 203728 187 INFO dfs.DataNode$PacketResponder: PacketResponder 2 for block blk_847418696961406650 terminating
12884	081109 203728 187 INFO dfs.DataNode$PacketResponder: Received block blk_847418696961406650 of size 67108864 from /10.251.202.134
12885	081109 203728 190 INFO dfs.DataNode$PacketResponder: PacketResponder 2 for block blk_-8344369764096766543 terminating
12886	081109 203728 190 INFO dfs.DataNode$PacketResponder: Received block blk_-8344369764096766543 of size 67108864 from /10.250.15.240
12887	081109 203728 191 INFO dfs.DataNode$PacketResponder: PacketResponder 0 for block blk_847418696961406650 terminating
12888	081109 203728 191 INFO dfs.DataNode$PacketResponder: Received block blk_847418696961406650 of size 67108864 from /10.250.5.237
12889	081109 203728 193 INFO dfs.DataNode$PacketResponder: PacketResponder 1 for block blk_847418696961406650 terminating
12890	081109 203728 193 INFO dfs.DataNode$PacketResponder: Received block blk_847418696961406650 of size 67108864 from /10.251.202.134
12891	081109 203728 197 INFO dfs.DataNode$PacketResponder: PacketResponder 1 for block blk_1347177590369994671 terminating
12892	081109 203728 197 INFO dfs.DataNode$PacketResponder: PacketResponder 1 for block blk_-5851674849910133238 terminating
12893	081109 203728 197 INFO dfs.DataNode$PacketResponder: Received block blk_1347177590369994671 of size 67108864 from /10.251.73.220
12894	081109 203728 197 INFO dfs.DataNode$PacketResponder: Received block blk_-5851674849910133238 of size 67108864 from /10.251.73.220
12895	081109 203728 198 INFO dfs.DataNode$PacketResponder: PacketResponder 0 for block blk_9139290401737745980 terminating
12896	081109 203728 198 INFO dfs.DataNode$PacketResponder: Received block blk_9139290401737745980 of size 67108864 from /10.251.67.113
12897	081109 203728 201 INFO dfs.DataNode$PacketResponder: PacketResponder 0 for block blk_1347177590369994671 terminating
12898	081109 203728 201 INFO dfs.DataNode$PacketResponder: Received block blk_1347177590369994671 of size 67108864 from /10.251.27.63
12899	081109 203728 202 INFO dfs.DataNode$PacketResponder: PacketResponder 2 for block blk_-311226655024757200 terminating
12900	081109 203728 202 INFO dfs.DataNode$PacketResponder: Received block blk_-311226655024757200 of size 67108864 from /10.251.75.49
12901	081109 203728 203 INFO dfs.DataNode$PacketResponder: PacketResponder 0 for block blk_-3462163259599187733 terminating
12902	081109 203728 203 INFO dfs.DataNode$PacketResponder: Received block blk_-3462163259599187733 of size 67108864 from /10.251.75.228
12903	081109 203728 204 INFO dfs.DataNode$PacketResponder: PacketResponder 0 for block blk_-311226655024757200 terminating
12904	081109 203728 204 INFO dfs.DataNode$PacketResponder: PacketResponder 2 for block blk_-2968846073651305677 terminating
12905	081109 203728 204 INFO dfs.DataNode$PacketResponder: Received block blk_-2968846073651305677 of size 67108864 from /10.250.14.196
12906	081109 203728 204 INFO dfs.DataNode$PacketResponder: Received block blk_-311226655024757200 of size 67108864 from /10.251.39.179
12907	081109 203728 205 INFO dfs.DataNode$PacketResponder: PacketResponder 0 for block blk_-2968846073651305677 terminating
12908	081109 203728 205 INFO dfs.DataNode$PacketResponder: Received block blk_-2968846073651305677 of size 67108864 from /10.250.17.177
12909	081109 203728 207 INFO dfs.DataNode$PacketResponder: PacketResponder 0 for block blk_83011911604328233 terminating
12910	081109 203728 207 INFO dfs.DataNode$PacketResponder: PacketResponder 1 for block blk_-2968846073651305677 terminating
12911	081109 203728 207 INFO dfs.DataNode$PacketResponder: Received block blk_-2968846073651305677 of size 67108864 from /10.250.14.196
12912	081109 203728 207 INFO dfs.DataNode$PacketResponder: Received block blk_83011911604328233 of size 67108864 from /10.251.43.21
12913	081109 203728 208 INFO dfs.DataNode$PacketResponder: PacketResponder 2 for block blk_-4577193670204126134 terminating
12914	081109 203728 208 INFO dfs.DataNode$PacketResponder: Received block blk_-4577193670204126134 of size 67108864 from /10.251.110.68
12915	081109 203728 212 INFO dfs.DataNode$PacketResponder: PacketResponder 2 for block blk_1347177590369994671 terminating
12916	081109 203728 212 INFO dfs.DataNode$PacketResponder: Received block blk_1347177590369994671 of size 67108864 from /10.251.73.220
12917	081109 203728 213 INFO dfs.DataNode$PacketResponder: PacketResponder 1 for block blk_83011911604328233 terminating
12918	081109 203728 213 INFO dfs.DataNode$PacketResponder: Received block blk_83011911604328233 of size 67108864 from /10.251.42.16
12919	081109 203728 214 INFO dfs.DataNode$PacketResponder: PacketResponder 2 for block blk_-5851674849910133238 terminating
12920	081109 203728 214 INFO dfs.DataNode$PacketResponder: Received block blk_-5851674849910133238 of size 67108864 from /10.251.73.220
12921	081109 203728 215 INFO dfs.DataNode$DataXceiver: Receiving block blk_7277386080338318562 src: /10.250.17.177:58042 dest: /10.250.17.177:50010
12922	081109 203728 217 INFO dfs.DataNode$DataXceiver: Receiving block blk_3202793887240026498 src: /10.251.197.161:57827 dest: /10.251.197.161:50010
12923	081109 203728 217 INFO dfs.DataNode$DataXceiver: Receiving block blk_-5848306973659921501 src: /10.250.15.240:38475 dest: /10.250.15.240:50010
12924	081109 203728 218 INFO dfs.DataNode$DataXceiver: Receiving block blk_-5848306973659921501 src: /10.250.15.240:41553 dest: /10.250.15.240:50010
12925	081109 203728 218 INFO dfs.DataNode$DataXceiver: Receiving block blk_-6655966220924532449 src: /10.251.42.9:48778 dest: /10.251.42.9:50010
12926	081109 203728 219 INFO dfs.DataNode$DataXceiver: Receiving block blk_3202793887240026498 src: /10.251.194.102:45478 dest: /10.251.194.102:50010
12927	081109 203728 220 INFO dfs.DataNode$DataXceiver: Receiving block blk_-4336696823570809101 src: /10.251.26.8:43922 dest: /10.251.26.8:50010
12928	081109 203728 222 INFO dfs.DataNode$DataXceiver: Receiving block blk_4632581286229128494 src: /10.251.42.207:54277 dest: /10.251.42.207:50010
12929	081109 203728 224 INFO dfs.DataNode$DataXceiver: Receiving block blk_-8616195155998656568 src: /10.251.110.68:57253 dest: /10.251.110.68:50010
12930	081109 203728 225 INFO dfs.DataNode$DataXceiver: Receiving block blk_-2942348081186881566 src: /10.250.5.237:33654 dest: /10.250.5.237:50010
12931	081109 203728 225 INFO dfs.DataNode$DataXceiver: Receiving block blk_3523500992415372662 src: /10.251.110.8:34109 dest: /10.251.110.8:50010
12932	081109 203728 225 INFO dfs.DataNode$DataXceiver: Receiving block blk_4200831749650787744 src: /10.250.14.196:50233 dest: /10.250.14.196:50010
12933	081109 203728 225 INFO dfs.DataNode$DataXceiver: Receiving block blk_-8616195155998656568 src: /10.251.110.68:35133 dest: /10.251.110.68:50010
12934	081109 203728 226 INFO dfs.DataNode$DataXceiver: Receiving block blk_-1458875489312605225 src: /10.251.197.226:55396 dest: /10.251.197.226:50010
12935	081109 203728 231 INFO dfs.DataNode$DataXceiver: Receiving block blk_-6655966220924532449 src: /10.251.90.64:47693 dest: /10.251.90.64:50010
12936	081109 203728 232 INFO dfs.DataNode$DataXceiver: Receiving block blk_-7994532048860001059 src: /10.250.17.177:55617 dest: /10.250.17.177:50010
12937	081109 203728 233 INFO dfs.DataNode$DataXceiver: Receiving block blk_-6655966220924532449 src: /10.251.90.64:46741 dest: /10.251.90.64:50010
12938	081109 203728 234 INFO dfs.DataNode$DataXceiver: Receiving block blk_1520817668331526404 src: /10.251.73.220:51006 dest: /10.251.73.220:50010
12939	081109 203728 235 INFO dfs.DataNode$DataXceiver: Receiving block blk_-2812142493519080162 src: /10.251.73.220:51007 dest: /10.251.73.220:50010
12940	081109 203728 255 INFO dfs.DataNode$PacketResponder: PacketResponder 2 for block blk_-5281652609560910153 terminating
12941	081109 203728 255 INFO dfs.DataNode$PacketResponder: Received block blk_-5281652609560910153 of size 67108864 from /10.251.197.226
12942	081109 203728 26 INFO dfs.FSNamesystem: BLOCK* NameSystem.addStoredBlock: blockMap updated: 10.250.14.196:50010 is added to blk_-2968846073651305677 size 67108864
12943	081109 203728 26 INFO dfs.FSNamesystem: BLOCK* NameSystem.addStoredBlock: blockMap updated: 10.251.27.63:50010 is added to blk_1347177590369994671 size 67108864
12944	081109 203728 270 INFO dfs.DataNode$PacketResponder: PacketResponder 1 for block blk_-311226655024757200 terminating
12945	081109 203728 270 INFO dfs.DataNode$PacketResponder: Received block blk_-311226655024757200 of size 67108864 from /10.251.75.49
12946	081109 203728 27 INFO dfs.FSNamesystem: BLOCK* NameSystem.addStoredBlock: blockMap updated: 10.250.17.177:50010 is added to blk_-2968846073651305677 size 67108864
12947	081109 203728 28 INFO dfs.FSNamesystem: BLOCK* NameSystem.addStoredBlock: blockMap updated: 10.251.109.236:50010 is added to blk_-5851674849910133238 size 67108864
12948	081109 203728 28 INFO dfs.FSNamesystem: BLOCK* NameSystem.addStoredBlock: blockMap updated: 10.251.71.146:50010 is added to blk_-1610188518003877647 size 67108864
12949	081109 203728 28 INFO dfs.FSNamesystem: BLOCK* NameSystem.allocateBlock: /user/root/rand/_temporary/_task_200811092030_0001_m_000259_0/part-00259. blk_-1458875489312605225
12950	081109 203728 299 INFO dfs.DataNode$DataXceiver: Receiving block blk_3146336002919263055 src: /10.251.126.22:55058 dest: /10.251.126.22:50010
12951	081109 203728 29 INFO dfs.FSNamesystem: BLOCK* NameSystem.addStoredBlock: blockMap updated: 10.251.42.207:50010 is added to blk_-2968846073651305677 size 67108864
12952	081109 203728 303 INFO dfs.DataNode$DataXceiver: Receiving block blk_-1458875489312605225 src: /10.251.197.226:44203 dest: /10.251.197.226:50010
12953	081109 203728 30 INFO dfs.FSNamesystem: BLOCK* NameSystem.addStoredBlock: blockMap updated: 10.251.73.220:50010 is added to blk_-5851674849910133238 size 67108864
12954	081109 203728 30 INFO dfs.FSNamesystem: BLOCK* NameSystem.addStoredBlock: blockMap updated: 10.251.75.143:50010 is added to blk_1347177590369994671 size 67108864
12955	081109 203728 30 INFO dfs.FSNamesystem: BLOCK* NameSystem.allocateBlock: /user/root/rand/_temporary/_task_200811092030_0001_m_000220_0/part-00220. blk_4200831749650787744
12956	081109 203728 31 INFO dfs.FSNamesystem: BLOCK* NameSystem.addStoredBlock: blockMap updated: 10.250.5.237:50010 is added to blk_847418696961406650 size 67108864
12957	081109 203728 31 INFO dfs.FSNamesystem: BLOCK* NameSystem.addStoredBlock: blockMap updated: 10.251.197.226:50010 is added to blk_-5281652609560910153 size 67108864
12958	081109 203728 31 INFO dfs.FSNamesystem: BLOCK* NameSystem.addStoredBlock: blockMap updated: 10.251.67.113:50010 is added to blk_-5851674849910133238 size 67108864
12959	081109 203728 31 INFO dfs.FSNamesystem: BLOCK* NameSystem.allocateBlock: /user/root/rand/_temporary/_task_200811092030_0001_m_000059_0/part-00059. blk_-2812142493519080162
12960	081109 203728 31 INFO dfs.FSNamesystem: BLOCK* NameSystem.allocateBlock: /user/root/rand/_temporary/_task_200811092030_0001_m_000131_0/part-00131. blk_-4545249265623052954
12961	081109 203728 31 INFO dfs.FSNamesystem: BLOCK* NameSystem.allocateBlock: /user/root/rand/_temporary/_task_200811092030_0001_m_000219_0/part-00219. blk_1520817668331526404
12962	081109 203728 32 INFO dfs.FSNamesystem: BLOCK* NameSystem.addStoredBlock: blockMap updated: 10.251.89.155:50010 is added to blk_1763907258501437751 size 67108864
12963	081109 203728 32 INFO dfs.FSNamesystem: BLOCK* NameSystem.addStoredBlock: blockMap updated: 10.251.89.155:50010 is added to blk_9139290401737745980 size 67108864
12964	081109 203728 32 INFO dfs.FSNamesystem: BLOCK* NameSystem.allocateBlock: /user/root/rand/_temporary/_task_200811092030_0001_m_000370_0/part-00370. blk_-5848306973659921501
12965	081109 203728 33 INFO dfs.FSNamesystem: BLOCK* NameSystem.addStoredBlock: blockMap updated: 10.250.15.240:50010 is added to blk_-8344369764096766543 size 67108864
12966	081109 203728 33 INFO dfs.FSNamesystem: BLOCK* NameSystem.addStoredBlock: blockMap updated: 10.251.123.99:50010 is added to blk_847418696961406650 size 67108864
12967	081109 203728 33 INFO dfs.FSNamesystem: BLOCK* NameSystem.addStoredBlock: blockMap updated: 10.251.39.179:50010 is added to blk_-311226655024757200 size 67108864
12968	081109 203728 34 INFO dfs.FSNamesystem: BLOCK* NameSystem.addStoredBlock: blockMap updated: 10.251.110.68:50010 is added to blk_-4577193670204126134 size 67108864
12969	081109 203728 35 INFO dfs.FSNamesystem: BLOCK* NameSystem.addStoredBlock: blockMap updated: 10.251.127.243:50010 is added to blk_-1610188518003877647 size 67108864
12970	081109 203728 35 INFO dfs.FSNamesystem: BLOCK* NameSystem.addStoredBlock: blockMap updated: 10.251.197.226:50010 is added to blk_-8351324667986910703 size 67108864
12971	081109 203728 35 INFO dfs.FSNamesystem: BLOCK* NameSystem.addStoredBlock: blockMap updated: 10.251.73.220:50010 is added to blk_1347177590369994671 size 67108864
12972	081109 203728 35 INFO dfs.FSNamesystem: BLOCK* NameSystem.allocateBlock: /user/root/rand/_temporary/_task_200811092030_0001_m_000097_0/part-00097. blk_-8616195155998656568
12973	081109 203729 13 INFO dfs.DataBlockScanner: Verification succeeded for blk_38865049064139660
12974	081109 203729 13 INFO dfs.DataBlockScanner: Verification succeeded for blk_3947106522258141922
12975	081109 203729 13 INFO dfs.DataBlockScanner: Verification succeeded for blk_-7545473931084004681
12976	081109 203729 183 INFO dfs.DataNode$PacketResponder: PacketResponder 2 for block blk_-429810545636837749 terminating
12977	081109 203729 183 INFO dfs.DataNode$PacketResponder: Received block blk_-429810545636837749 of size 67108864 from /10.251.126.227
12978	081109 203729 186 INFO dfs.DataNode$PacketResponder: PacketResponder 0 for block blk_-429810545636837749 terminating
12979	081109 203729 186 INFO dfs.DataNode$PacketResponder: Received block blk_-429810545636837749 of size 67108864 from /10.251.111.130
12980	081109 203729 189 INFO dfs.DataNode$PacketResponder: PacketResponder 1 for block blk_-429810545636837749 terminating
12981	081109 203729 189 INFO dfs.DataNode$PacketResponder: Received block blk_-429810545636837749 of size 67108864 from /10.251.126.227
12982	081109 203729 190 INFO dfs.DataNode$PacketResponder: PacketResponder 1 for block blk_9139290401737745980 terminating
12983	081109 203729 190 INFO dfs.DataNode$PacketResponder: Received block blk_9139290401737745980 of size 67108864 from /10.251.193.224
12984	081109 203729 191 INFO dfs.DataNode$PacketResponder: PacketResponder 0 for block blk_-246026268456613968 terminating
12985	081109 203729 191 INFO dfs.DataNode$PacketResponder: PacketResponder 2 for block blk_9139290401737745980 terminating
12986	081109 203729 191 INFO dfs.DataNode$PacketResponder: Received block blk_-246026268456613968 of size 67108864 from /10.251.91.32
12987	081109 203729 191 INFO dfs.DataNode$PacketResponder: Received block blk_9139290401737745980 of size 67108864 from /10.251.193.224
12988	081109 203729 193 INFO dfs.DataNode$PacketResponder: PacketResponder 1 for block blk_3315047161001772510 terminating
12989	081109 203729 193 INFO dfs.DataNode$PacketResponder: Received block blk_3315047161001772510 of size 67108864 from /10.251.67.4
12990	081109 203729 195 INFO dfs.DataNode$PacketResponder: PacketResponder 1 for block blk_-246026268456613968 terminating
12991	081109 203729 195 INFO dfs.DataNode$PacketResponder: Received block blk_-246026268456613968 of size 67108864 from /10.251.31.5
12992	081109 203729 197 INFO dfs.DataNode$PacketResponder: PacketResponder 2 for block blk_3315047161001772510 terminating
12993	081109 203729 197 INFO dfs.DataNode$PacketResponder: Received block blk_3315047161001772510 of size 67108864 from /10.251.67.4
12994	081109 203729 199 INFO dfs.DataNode$PacketResponder: PacketResponder 0 for block blk_-8875853476597140925 terminating
12995	081109 203729 199 INFO dfs.DataNode$PacketResponder: Received block blk_-8875853476597140925 of size 67108864 from /10.250.10.176
12996	081109 203729 200 INFO dfs.DataNode$PacketResponder: PacketResponder 0 for block blk_-789121331302408582 terminating
12997	081109 203729 200 INFO dfs.DataNode$PacketResponder: Received block blk_-789121331302408582 of size 67108864 from /10.251.74.192
12998	081109 203729 201 INFO dfs.DataNode$PacketResponder: PacketResponder 2 for block blk_4262723691885942076 terminating
12999	081109 203729 201 INFO dfs.DataNode$PacketResponder: Received block blk_4262723691885942076 of size 67108864 from /10.251.194.102
13000	081109 203729 202 INFO dfs.DataNode$PacketResponder: PacketResponder 0 for block blk_3315047161001772510 terminating
13001	081109 203729 202 INFO dfs.DataNode$PacketResponder: Received block blk_3315047161001772510 of size 67108864 from /10.251.27.63
13002	081109 203729 204 INFO dfs.DataNode$PacketResponder: PacketResponder 0 for block blk_2294600790656816655 terminating
13003	081109 203729 204 INFO dfs.DataNode$PacketResponder: PacketResponder 1 for block blk_-789121331302408582 terminating
13004	081109 203729 204 INFO dfs.DataNode$PacketResponder: PacketResponder 2 for block blk_-3462163259599187733 terminating
13005	081109 203729 204 INFO dfs.DataNode$PacketResponder: Received block blk_2294600790656816655 of size 67108864 from /10.251.39.179
13006	081109 203729 204 INFO dfs.DataNode$PacketResponder: Received block blk_-3462163259599187733 of size 67108864 from /10.251.91.84
13007	081109 203729 204 INFO dfs.DataNode$PacketResponder: Received block blk_-789121331302408582 of size 67108864 from /10.251.66.192
13008	081109 203729 205 INFO dfs.DataNode$PacketResponder: PacketResponder 0 for block blk_4262723691885942076 terminating
13009	081109 203729 205 INFO dfs.DataNode$PacketResponder: PacketResponder 2 for block blk_2294600790656816655 terminating
13010	081109 203729 205 INFO dfs.DataNode$PacketResponder: Received block blk_2294600790656816655 of size 67108864 from /10.251.110.68
13011	081109 203729 205 INFO dfs.DataNode$PacketResponder: Received block blk_4262723691885942076 of size 67108864 from /10.251.31.160
13012	081109 203729 206 INFO dfs.DataNode$PacketResponder: PacketResponder 1 for block blk_4262723691885942076 terminating
13013	081109 203729 206 INFO dfs.DataNode$PacketResponder: PacketResponder 2 for block blk_83011911604328233 terminating
13014	081109 203729 206 INFO dfs.DataNode$PacketResponder: Received block blk_4262723691885942076 of size 67108864 from /10.251.194.102
13015	081109 203729 206 INFO dfs.DataNode$PacketResponder: Received block blk_83011911604328233 of size 67108864 from /10.251.42.16
13016	081109 203729 207 INFO dfs.DataNode$PacketResponder: PacketResponder 2 for block blk_-246026268456613968 terminating
13017	081109 203729 207 INFO dfs.DataNode$PacketResponder: PacketResponder 2 for block blk_-6258885270084779885 terminating
13018	081109 203729 207 INFO dfs.DataNode$PacketResponder: Received block blk_-246026268456613968 of size 67108864 from /10.251.31.5
13019	081109 203729 207 INFO dfs.DataNode$PacketResponder: Received block blk_-6258885270084779885 of size 67108864 from /10.251.39.64
13020	081109 203729 209 INFO dfs.DataNode$PacketResponder: PacketResponder 1 for block blk_3174751483965949562 terminating
13021	081109 203729 209 INFO dfs.DataNode$PacketResponder: Received block blk_3174751483965949562 of size 67108864 from /10.251.215.16
13022	081109 203729 210 INFO dfs.DataNode$PacketResponder: PacketResponder 1 for block blk_-3462163259599187733 terminating
13023	081109 203729 210 INFO dfs.DataNode$PacketResponder: PacketResponder 1 for block blk_-6258885270084779885 terminating
13024	081109 203729 210 INFO dfs.DataNode$PacketResponder: Received block blk_-3462163259599187733 of size 67108864 from /10.251.91.84
13025	081109 203729 210 INFO dfs.DataNode$PacketResponder: Received block blk_-6258885270084779885 of size 67108864 from /10.251.39.64
13026	081109 203729 210 INFO dfs.DataNode$PacketResponder: Received block blk_-789121331302408582 of size 67108864 from /10.251.66.192
13027	081109 203729 211 INFO dfs.DataNode$PacketResponder: PacketResponder 0 for block blk_3174751483965949562 terminating
13028	081109 203729 211 INFO dfs.DataNode$PacketResponder: Received block blk_3174751483965949562 of size 67108864 from /10.251.106.10
13029	081109 203729 213 INFO dfs.DataNode$PacketResponder: PacketResponder 0 for block blk_-6258885270084779885 terminating
13030	081109 203729 213 INFO dfs.DataNode$PacketResponder: Received block blk_-6258885270084779885 of size 67108864 from /10.250.13.188
13031	081109 203729 215 INFO dfs.DataNode$DataXceiver: Receiving block blk_-5357165444811048723 src: /10.251.42.16:50724 dest: /10.251.42.16:50010
13032	081109 203729 218 INFO dfs.DataNode$DataXceiver: Receiving block blk_59685957914152811 src: /10.251.126.227:37350 dest: /10.251.126.227:50010
13033	081109 203729 219 INFO dfs.DataNode$DataXceiver: Receiving block blk_-2812142493519080162 src: /10.251.30.179:57519 dest: /10.251.30.179:50010
13034	081109 203729 219 INFO dfs.DataNode$DataXceiver: Receiving block blk_2897359511663799170 src: /10.250.10.100:41404 dest: /10.250.10.100:50010
13035	081109 203729 219 INFO dfs.DataNode$DataXceiver: Receiving block blk_-4025403648467660366 src: /10.251.194.102:43684 dest: /10.251.194.102:50010
13036	081109 203729 219 INFO dfs.DataNode$DataXceiver: Receiving block blk_-5357165444811048723 src: /10.251.42.16:37664 dest: /10.251.42.16:50010
13037	081109 203729 219 INFO dfs.DataNode$DataXceiver: Receiving block blk_-5601357084064732228 src: /10.251.91.84:48774 dest: /10.251.91.84:50010
13038	081109 203729 220 INFO dfs.DataNode$DataXceiver: Receiving block blk_-5601357084064732228 src: /10.251.123.1:54717 dest: /10.251.123.1:50010
13039	081109 203729 220 INFO dfs.DataNode$DataXceiver: Receiving block blk_8746861103856581409 src: /10.251.75.49:36629 dest: /10.251.75.49:50010
13040	081109 203729 221 INFO dfs.DataNode$DataXceiver: Receiving block blk_-3052431536932607735 src: /10.251.67.4:34545 dest: /10.251.67.4:50010
13041	081109 203729 221 INFO dfs.DataNode$DataXceiver: Receiving block blk_5283134960555549953 src: /10.251.202.134:43308 dest: /10.251.202.134:50010
13042	081109 203729 221 INFO dfs.DataNode$DataXceiver: Receiving block blk_-5848306973659921501 src: /10.251.31.180:59397 dest: /10.251.31.180:50010
13043	081109 203729 222 INFO dfs.DataNode$DataXceiver: Receiving block blk_-4613596993997604897 src: /10.251.39.64:58782 dest: /10.251.39.64:50010
13044	081109 203729 222 INFO dfs.DataNode$DataXceiver: Receiving block blk_59685957914152811 src: /10.251.126.227:45013 dest: /10.251.126.227:50010
13045	081109 203729 222 INFO dfs.DataNode$DataXceiver: Receiving block blk_8557704975404589049 src: /10.251.193.224:48984 dest: /10.251.193.224:50010
13046	081109 203729 223 INFO dfs.DataNode$DataXceiver: Receiving block blk_-1458875489312605225 src: /10.251.30.179:52747 dest: /10.251.30.179:50010
13047	081109 203729 223 INFO dfs.DataNode$DataXceiver: Receiving block blk_-3052431536932607735 src: /10.251.67.4:57747 dest: /10.251.67.4:50010
13048	081109 203729 223 INFO dfs.DataNode$DataXceiver: Receiving block blk_-5601357084064732228 src: /10.251.91.84:59248 dest: /10.251.91.84:50010
13049	081109 203729 223 INFO dfs.DataNode$DataXceiver: Receiving block blk_8746861103856581409 src: /10.251.75.49:33571 dest: /10.251.75.49:50010
13050	081109 203729 224 INFO dfs.DataNode$DataXceiver: Receiving block blk_-5357165444811048723 src: /10.251.74.192:57766 dest: /10.251.74.192:50010
13051	081109 203729 224 INFO dfs.DataNode$DataXceiver: Receiving block blk_-8616195155998656568 src: /10.251.125.174:37379 dest: /10.251.125.174:50010
13052	081109 203729 225 INFO dfs.DataNode$DataXceiver: Receiving block blk_1520817668331526404 src: /10.251.39.192:60680 dest: /10.251.39.192:50010
13053	081109 203729 225 INFO dfs.DataNode$DataXceiver: Receiving block blk_-4577192798445174452 src: /10.251.31.5:41101 dest: /10.251.31.5:50010
13054	081109 203729 227 INFO dfs.DataNode$DataXceiver: Receiving block blk_-2812142493519080162 src: /10.251.73.220:56476 dest: /10.251.73.220:50010
13055	081109 203729 227 INFO dfs.DataNode$DataXceiver: Receiving block blk_4993285353249707081 src: /10.251.110.68:35135 dest: /10.251.110.68:50010
13056	081109 203729 228 INFO dfs.DataNode$DataXceiver: Receiving block blk_1520817668331526404 src: /10.251.73.220:52701 dest: /10.251.73.220:50010
13057	081109 203729 229 INFO dfs.DataNode$DataXceiver: Receiving block blk_-4613596993997604897 src: /10.251.39.64:60446 dest: /10.251.39.64:50010
13058	081109 203729 232 INFO dfs.DataNode$DataXceiver: Receiving block blk_-4336696823570809101 src: /10.251.39.160:47921 dest: /10.251.39.160:50010
13059	081109 203729 233 INFO dfs.DataNode$DataXceiver: Receiving block blk_7625398605863794410 src: /10.251.199.86:45028 dest: /10.251.199.86:50010
13060	081109 203729 238 INFO dfs.DataNode$DataXceiver: Receiving block blk_8557704975404589049 src: /10.251.193.224:56637 dest: /10.251.193.224:50010
13061	081109 203729 242 INFO dfs.DataNode$DataXceiver: Receiving block blk_5038240079088975938 src: /10.251.202.209:57809 dest: /10.251.202.209:50010
13062	081109 203729 244 INFO dfs.DataNode$DataXceiver: Receiving block blk_-4577192798445174452 src: /10.251.31.5:53786 dest: /10.251.31.5:50010
13063	081109 203729 244 INFO dfs.DataNode$DataXceiver: Receiving block blk_59685957914152811 src: /10.251.123.195:37365 dest: /10.251.123.195:50010
13064	081109 203729 248 INFO dfs.DataNode$DataXceiver: Receiving block blk_8746861103856581409 src: /10.251.107.242:50275 dest: /10.251.107.242:50010
13065	081109 203729 256 INFO dfs.DataNode$DataXceiver: Receiving block blk_8557704975404589049 src: /10.251.111.228:40322 dest: /10.251.111.228:50010
13066	081109 203729 26 INFO dfs.FSNamesystem: BLOCK* NameSystem.allocateBlock: /user/root/rand/_temporary/_task_200811092030_0001_m_000033_0/part-00033. blk_-5357165444811048723
13067	081109 203729 272 INFO dfs.DataNode$PacketResponder: PacketResponder 1 for block blk_2294600790656816655 terminating
13068	081109 203729 272 INFO dfs.DataNode$PacketResponder: Received block blk_2294600790656816655 of size 67108864 from /10.251.110.68
13069	081109 203729 27 INFO dfs.FSNamesystem: BLOCK* NameSystem.addStoredBlock: blockMap updated: 10.251.67.113:50010 is added to blk_9139290401737745980 size 67108864
13070	081109 203729 27 INFO dfs.FSNamesystem: BLOCK* NameSystem.allocateBlock: /user/root/rand/_temporary/_task_200811092030_0001_m_000002_0/part-00002. blk_-4577192798445174452
13071	081109 203729 27 INFO dfs.FSNamesystem: BLOCK* NameSystem.allocateBlock: /user/root/rand/_temporary/_task_200811092030_0001_m_000361_0/part-00361. blk_-4613596993997604897
13072	081109 203729 28 INFO dfs.FSNamesystem: BLOCK* NameSystem.addStoredBlock: blockMap updated: 10.251.202.134:50010 is added to blk_847418696961406650 size 67108864
13073	081109 203729 28 INFO dfs.FSNamesystem: BLOCK* NameSystem.addStoredBlock: blockMap updated: 10.251.42.16:50010 is added to blk_83011911604328233 size 67108864
13074	081109 203729 28 INFO dfs.FSNamesystem: BLOCK* NameSystem.allocateBlock: /user/root/rand/_temporary/_task_200811092030_0001_m_000052_0/part-00052. blk_-3052431536932607735
13075	081109 203729 28 INFO dfs.FSNamesystem: BLOCK* NameSystem.allocateBlock: /user/root/rand/_temporary/_task_200811092030_0001_m_000235_0/part-00235. blk_-4025403648467660366
13076	081109 203729 29 INFO dfs.FSNamesystem: BLOCK* NameSystem.addStoredBlock: blockMap updated: 10.251.110.68:50010 is added to blk_-6258885270084779885 size 67108864
13077	081109 203729 29 INFO dfs.FSNamesystem: BLOCK* NameSystem.addStoredBlock: blockMap updated: 10.251.30.134:50010 is added to blk_4262723691885942076 size 67108864
13078	081109 203729 29 INFO dfs.FSNamesystem: BLOCK* NameSystem.addStoredBlock: blockMap updated: 10.251.43.21:50010 is added to blk_83011911604328233 size 67108864
13079	081109 203729 29 INFO dfs.FSNamesystem: BLOCK* NameSystem.allocateBlock: /user/root/rand/_temporary/_task_200811092030_0001_m_000060_0/part-00060. blk_8746861103856581409
13080	081109 203729 29 INFO dfs.FSNamesystem: BLOCK* NameSystem.allocateBlock: /user/root/rand/_temporary/_task_200811092030_0001_m_000122_0/part-00122. blk_59685957914152811
13081	081109 203729 29 INFO dfs.FSNamesystem: BLOCK* NameSystem.allocateBlock: /user/root/rand/_temporary/_task_200811092030_0001_m_000181_0/part-00181. blk_-5601357084064732228
13082	081109 203729 30 INFO dfs.FSNamesystem: BLOCK* NameSystem.addStoredBlock: blockMap updated: 10.251.214.175:50010 is added to blk_3174751483965949562 size 67108864
13083	081109 203729 30 INFO dfs.FSNamesystem: BLOCK* NameSystem.addStoredBlock: blockMap updated: 10.251.27.63:50010 is added to blk_3315047161001772510 size 67108864
13084	081109 203729 30 INFO dfs.FSNamesystem: BLOCK* NameSystem.addStoredBlock: blockMap updated: 10.251.31.5:50010 is added to blk_-246026268456613968 size 67108864
13085	081109 203729 31 INFO dfs.FSNamesystem: BLOCK* NameSystem.addStoredBlock: blockMap updated: 10.251.203.246:50010 is added to blk_-246026268456613968 size 67108864
13086	081109 203729 31 INFO dfs.FSNamesystem: BLOCK* NameSystem.addStoredBlock: blockMap updated: 10.251.39.64:50010 is added to blk_-6258885270084779885 size 67108864
13087	081109 203729 31 INFO dfs.FSNamesystem: BLOCK* NameSystem.addStoredBlock: blockMap updated: 10.251.74.192:50010 is added to blk_-789121331302408582 size 67108864
13088	081109 203729 32 INFO dfs.FSNamesystem: BLOCK* NameSystem.addStoredBlock: blockMap updated: 10.250.10.100:50010 is added to blk_83011911604328233 size 67108864
13089	081109 203729 32 INFO dfs.FSNamesystem: BLOCK* NameSystem.addStoredBlock: blockMap updated: 10.251.111.80:50010 is added to blk_-311226655024757200 size 67108864
13090	081109 203729 32 INFO dfs.FSNamesystem: BLOCK* NameSystem.addStoredBlock: blockMap updated: 10.251.194.102:50010 is added to blk_4262723691885942076 size 67108864
13091	081109 203729 32 INFO dfs.FSNamesystem: BLOCK* NameSystem.addStoredBlock: blockMap updated: 10.251.75.228:50010 is added to blk_-3462163259599187733 size 67108864
13092	081109 203729 32 INFO dfs.FSNamesystem: BLOCK* NameSystem.addStoredBlock: blockMap updated: 10.251.75.49:50010 is added to blk_-311226655024757200 size 67108864
13093	081109 203729 32 INFO dfs.FSNamesystem: BLOCK* NameSystem.allocateBlock: /user/root/rand/_temporary/_task_200811092030_0001_m_000286_0/part-00286. blk_8557704975404589049
13094	081109 203729 33 INFO dfs.FSNamesystem: BLOCK* NameSystem.addStoredBlock: blockMap updated: 10.251.111.130:50010 is added to blk_-429810545636837749 size 67108864
13095	081109 203729 33 INFO dfs.FSNamesystem: BLOCK* NameSystem.addStoredBlock: blockMap updated: 10.251.126.227:50010 is added to blk_-429810545636837749 size 67108864
13096	081109 203729 33 INFO dfs.FSNamesystem: BLOCK* NameSystem.addStoredBlock: blockMap updated: 10.251.39.179:50010 is added to blk_2294600790656816655 size 67108864
13097	081109 203729 33 INFO dfs.FSNamesystem: BLOCK* NameSystem.addStoredBlock: blockMap updated: 10.251.42.246:50010 is added to blk_-429810545636837749 size 67108864
13098	081109 203729 33 INFO dfs.FSNamesystem: BLOCK* NameSystem.addStoredBlock: blockMap updated: 10.251.67.4:50010 is added to blk_3315047161001772510 size 67108864
13099	081109 203729 34 INFO dfs.FSNamesystem: BLOCK* NameSystem.addStoredBlock: blockMap updated: 10.251.123.20:50010 is added to blk_-789121331302408582 size 67108864
13100	081109 203729 34 INFO dfs.FSNamesystem: BLOCK* NameSystem.addStoredBlock: blockMap updated: 10.251.31.160:50010 is added to blk_4262723691885942076 size 67108864
13101	081109 203729 34 INFO dfs.FSNamesystem: BLOCK* NameSystem.addStoredBlock: blockMap updated: 10.251.91.32:50010 is added to blk_-246026268456613968 size 67108864
13102	081109 203729 34 INFO dfs.FSNamesystem: BLOCK* NameSystem.addStoredBlock: blockMap updated: 10.251.91.84:50010 is added to blk_-3462163259599187733 size 67108864
13103	081109 203729 34 INFO dfs.FSNamesystem: BLOCK* NameSystem.allocateBlock: /user/root/rand/_temporary/_task_200811092030_0001_m_000250_0/part-00250. blk_5283134960555549953
13104	081109 203729 35 INFO dfs.FSNamesystem: BLOCK* NameSystem.addStoredBlock: blockMap updated: 10.250.13.188:50010 is added to blk_-6258885270084779885 size 67108864
13105	081109 203729 35 INFO dfs.FSNamesystem: BLOCK* NameSystem.addStoredBlock: blockMap updated: 10.251.123.20:50010 is added to blk_-3462163259599187733 size 67108864
13106	081109 203729 35 INFO dfs.FSNamesystem: BLOCK* NameSystem.addStoredBlock: blockMap updated: 10.251.193.224:50010 is added to blk_9139290401737745980 size 67108864
13107	081109 203730 13 INFO dfs.DataBlockScanner: Verification succeeded for blk_-2449017855856764848
13108	081109 203730 184 INFO dfs.DataNode$PacketResponder: PacketResponder 2 for block blk_3081790587987964865 terminating
13109	081109 203730 184 INFO dfs.DataNode$PacketResponder: Received block blk_3081790587987964865 of size 67108864 from /10.251.203.166
13110	081109 203730 186 INFO dfs.DataNode$PacketResponder: PacketResponder 2 for block blk_-5718566902774898133 terminating
13111	081109 203730 186 INFO dfs.DataNode$PacketResponder: Received block blk_-5718566902774898133 of size 67108864 from /10.250.7.32
13112	081109 203730 188 INFO dfs.DataNode$PacketResponder: PacketResponder 0 for block blk_3081790587987964865 terminating
13113	081109 203730 188 INFO dfs.DataNode$PacketResponder: Received block blk_3081790587987964865 of size 67108864 from /10.251.71.146
13114	081109 203730 189 INFO dfs.DataNode$PacketResponder: PacketResponder 1 for block blk_3151206812686960851 terminating
13115	081109 203730 189 INFO dfs.DataNode$PacketResponder: Received block blk_3151206812686960851 of size 67108864 from /10.250.14.224
13116	081109 203730 193 INFO dfs.DataNode$PacketResponder: PacketResponder 1 for block blk_3081790587987964865 terminating
13117	081109 203730 193 INFO dfs.DataNode$PacketResponder: PacketResponder 2 for block blk_107679466757866349 terminating
13118	081109 203730 193 INFO dfs.DataNode$PacketResponder: Received block blk_107679466757866349 of size 67108864 from /10.251.75.49
13119	081109 203730 193 INFO dfs.DataNode$PacketResponder: Received block blk_3081790587987964865 of size 67108864 from /10.251.203.166
13120	081109 203730 194 INFO dfs.DataNode$PacketResponder: PacketResponder 2 for block blk_-437445126274247464 terminating
13121	081109 203730 194 INFO dfs.DataNode$PacketResponder: Received block blk_-437445126274247464 of size 67108864 from /10.251.107.50
13122	081109 203730 195 INFO dfs.DataNode$PacketResponder: PacketResponder 0 for block blk_107679466757866349 terminating
13123	081109 203730 195 INFO dfs.DataNode$PacketResponder: PacketResponder 1 for block blk_-437445126274247464 terminating
13124	081109 203730 195 INFO dfs.DataNode$PacketResponder: PacketResponder 2 for block blk_2703171498968003133 terminating
13125	081109 203730 195 INFO dfs.DataNode$PacketResponder: Received block blk_107679466757866349 of size 67108864 from /10.251.71.240
13126	081109 203730 195 INFO dfs.DataNode$PacketResponder: Received block blk_2703171498968003133 of size 67108864 from /10.251.127.243
13127	081109 203730 195 INFO dfs.DataNode$PacketResponder: Received block blk_-437445126274247464 of size 67108864 from /10.251.107.50
13128	081109 203730 196 INFO dfs.DataNode$PacketResponder: PacketResponder 0 for block blk_2703171498968003133 terminating
13129	081109 203730 196 INFO dfs.DataNode$PacketResponder: PacketResponder 0 for block blk_4357939960446746871 terminating
13130	081109 203730 196 INFO dfs.DataNode$PacketResponder: PacketResponder 1 for block blk_-5718566902774898133 terminating
13131	081109 203730 196 INFO dfs.DataNode$PacketResponder: Received block blk_2703171498968003133 of size 67108864 from /10.251.111.130
13132	081109 203730 196 INFO dfs.DataNode$PacketResponder: Received block blk_4357939960446746871 of size 67108864 from /10.251.214.32
13133	081109 203730 196 INFO dfs.DataNode$PacketResponder: Received block blk_-5718566902774898133 of size 67108864 from /10.250.7.32
13134	081109 203730 197 INFO dfs.DataNode$PacketResponder: PacketResponder 1 for block blk_8338938300524612323 terminating
13135	081109 203730 197 INFO dfs.DataNode$PacketResponder: Received block blk_8338938300524612323 of size 67108864 from /10.250.15.67
13136	081109 203730 199 INFO dfs.DataNode$PacketResponder: PacketResponder 0 for block blk_8777422202136655045 terminating
13137	081109 203730 199 INFO dfs.DataNode$PacketResponder: PacketResponder 1 for block blk_6895841870911683124 terminating
13138	081109 203730 199 INFO dfs.DataNode$PacketResponder: PacketResponder 2 for block blk_-5828680349927396673 terminating
13139	081109 203730 199 INFO dfs.DataNode$PacketResponder: PacketResponder 2 for block blk_-6213697702703799581 terminating
13140	081109 203730 199 INFO dfs.DataNode$PacketResponder: Received block blk_-5828680349927396673 of size 67108864 from /10.250.13.240
13141	081109 203730 199 INFO dfs.DataNode$PacketResponder: Received block blk_-6213697702703799581 of size 67108864 from /10.251.39.209
13142	081109 203730 199 INFO dfs.DataNode$PacketResponder: Received block blk_6895841870911683124 of size 67108864 from /10.251.198.196
13143	081109 203730 199 INFO dfs.DataNode$PacketResponder: Received block blk_8777422202136655045 of size 67108864 from /10.251.203.4
13144	081109 203730 200 INFO dfs.DataNode$PacketResponder: PacketResponder 0 for block blk_3151206812686960851 terminating
13145	081109 203730 200 INFO dfs.DataNode$PacketResponder: PacketResponder 0 for block blk_8338938300524612323 terminating
13146	081109 203730 200 INFO dfs.DataNode$PacketResponder: PacketResponder 1 for block blk_-1654072451124467407 terminating
13147	081109 203730 200 INFO dfs.DataNode$PacketResponder: PacketResponder 1 for block blk_-7728911370677562061 terminating
13148	081109 203730 200 INFO dfs.DataNode$PacketResponder: PacketResponder 1 for block blk_-8875853476597140925 terminating
13149	081109 203730 200 INFO dfs.DataNode$PacketResponder: Received block blk_-1654072451124467407 of size 67108864 from /10.250.14.224
13150	081109 203730 200 INFO dfs.DataNode$PacketResponder: Received block blk_3151206812686960851 of size 67108864 from /10.251.90.239
13151	081109 203730 200 INFO dfs.DataNode$PacketResponder: Received block blk_-7728911370677562061 of size 67108864 from /10.251.107.196
13152	081109 203730 200 INFO dfs.DataNode$PacketResponder: Received block blk_8338938300524612323 of size 67108864 from /10.251.43.115
13153	081109 203730 200 INFO dfs.DataNode$PacketResponder: Received block blk_-8875853476597140925 of size 67108864 from /10.251.214.67
13154	081109 203730 201 INFO dfs.DataNode$PacketResponder: PacketResponder 0 for block blk_-1654072451124467407 terminating
13155	081109 203730 201 INFO dfs.DataNode$PacketResponder: PacketResponder 0 for block blk_-437445126274247464 terminating
13156	081109 203730 201 INFO dfs.DataNode$PacketResponder: PacketResponder 1 for block blk_-5748259780611159029 terminating
13157	081109 203730 201 INFO dfs.DataNode$PacketResponder: PacketResponder 1 for block blk_-5828680349927396673 terminating
13158	081109 203730 201 INFO dfs.DataNode$PacketResponder: PacketResponder 2 for block blk_-8875853476597140925 terminating
13159	081109 203730 201 INFO dfs.DataNode$PacketResponder: Received block blk_-1654072451124467407 of size 67108864 from /10.251.194.245
13160	081109 203730 201 INFO dfs.DataNode$PacketResponder: Received block blk_-437445126274247464 of size 67108864 from /10.250.15.101
13161	081109 203730 201 INFO dfs.DataNode$PacketResponder: Received block blk_-5748259780611159029 of size 67108864 from /10.250.7.230
13162	081109 203730 201 INFO dfs.DataNode$PacketResponder: Received block blk_-5828680349927396673 of size 67108864 from /10.250.13.240
13163	081109 203730 201 INFO dfs.DataNode$PacketResponder: Received block blk_-8875853476597140925 of size 67108864 from /10.251.214.67
13164	081109 203730 202 INFO dfs.DataNode$PacketResponder: PacketResponder 0 for block blk_-5828680349927396673 terminating
13165	081109 203730 202 INFO dfs.DataNode$PacketResponder: Received block blk_-5828680349927396673 of size 67108864 from /10.251.39.242
13166	081109 203730 203 INFO dfs.DataNode$PacketResponder: PacketResponder 0 for block blk_-5718566902774898133 terminating
13167	081109 203730 203 INFO dfs.DataNode$PacketResponder: PacketResponder 0 for block blk_-6213697702703799581 terminating
13168	081109 203730 203 INFO dfs.DataNode$PacketResponder: PacketResponder 0 for block blk_7267150903868949897 terminating
13169	081109 203730 203 INFO dfs.DataNode$PacketResponder: PacketResponder 1 for block blk_8777422202136655045 terminating
13170	081109 203730 203 INFO dfs.DataNode$PacketResponder: PacketResponder 2 for block blk_4357939960446746871 terminating
13171	081109 203730 203 INFO dfs.DataNode$PacketResponder: Received block blk_4357939960446746871 of size 67108864 from /10.251.70.211
13172	081109 203730 203 INFO dfs.DataNode$PacketResponder: Received block blk_-5718566902774898133 of size 67108864 from /10.251.90.239
13173	081109 203730 203 INFO dfs.DataNode$PacketResponder: Received block blk_-6213697702703799581 of size 67108864 from /10.251.71.193
13174	081109 203730 203 INFO dfs.DataNode$PacketResponder: Received block blk_7267150903868949897 of size 67108864 from /10.251.38.197
13175	081109 203730 203 INFO dfs.DataNode$PacketResponder: Received block blk_8777422202136655045 of size 67108864 from /10.251.71.16
13176	081109 203730 204 INFO dfs.DataNode$PacketResponder: PacketResponder 1 for block blk_-1642472372717781799 terminating
13177	081109 203730 204 INFO dfs.DataNode$PacketResponder: Received block blk_-1642472372717781799 of size 67108864 from /10.251.91.15
13178	081109 203730 205 INFO dfs.DataNode$PacketResponder: PacketResponder 1 for block blk_2703171498968003133 terminating
13179	081109 203730 205 INFO dfs.DataNode$PacketResponder: PacketResponder 1 for block blk_4357939960446746871 terminating
13180	081109 203730 205 INFO dfs.DataNode$PacketResponder: PacketResponder 2 for block blk_7267150903868949897 terminating
13181	081109 203730 205 INFO dfs.DataNode$PacketResponder: Received block blk_2703171498968003133 of size 67108864 from /10.251.127.243
13182	081109 203730 205 INFO dfs.DataNode$PacketResponder: Received block blk_4357939960446746871 of size 67108864 from /10.251.70.211
13183	081109 203730 205 INFO dfs.DataNode$PacketResponder: Received block blk_7267150903868949897 of size 67108864 from /10.251.195.33
13184	081109 203730 206 INFO dfs.DataNode$PacketResponder: PacketResponder 1 for block blk_7267150903868949897 terminating
13185	081109 203730 206 INFO dfs.DataNode$PacketResponder: PacketResponder 2 for block blk_6895841870911683124 terminating
13186	081109 203730 206 INFO dfs.DataNode$PacketResponder: PacketResponder 2 for block blk_8338938300524612323 terminating
13187	081109 203730 206 INFO dfs.DataNode$PacketResponder: PacketResponder 2 for block blk_8777422202136655045 terminating
13188	081109 203730 206 INFO dfs.DataNode$PacketResponder: Received block blk_6895841870911683124 of size 67108864 from /10.251.198.196
13189	081109 203730 206 INFO dfs.DataNode$PacketResponder: Received block blk_7267150903868949897 of size 67108864 from /10.251.195.33
13190	081109 203730 206 INFO dfs.DataNode$PacketResponder: Received block blk_8338938300524612323 of size 67108864 from /10.250.15.67
13191	081109 203730 206 INFO dfs.DataNode$PacketResponder: Received block blk_8777422202136655045 of size 67108864 from /10.251.71.16
13192	081109 203730 207 INFO dfs.DataNode$PacketResponder: PacketResponder 0 for block blk_-4842669713490791548 terminating
13193	081109 203730 207 INFO dfs.DataNode$PacketResponder: PacketResponder 1 for block blk_107679466757866349 terminating
13194	081109 203730 207 INFO dfs.DataNode$PacketResponder: Received block blk_107679466757866349 of size 67108864 from /10.251.75.49
13195	081109 203730 207 INFO dfs.DataNode$PacketResponder: Received block blk_-4842669713490791548 of size 67108864 from /10.251.71.68
13196	081109 203730 208 INFO dfs.DataNode$PacketResponder: PacketResponder 0 for block blk_4781267590044428130 terminating
13197	081109 203730 208 INFO dfs.DataNode$PacketResponder: PacketResponder 1 for block blk_4781267590044428130 terminating
13198	081109 203730 208 INFO dfs.DataNode$PacketResponder: PacketResponder 1 for block blk_-4842669713490791548 terminating
13199	081109 203730 208 INFO dfs.DataNode$PacketResponder: Received block blk_4781267590044428130 of size 67108864 from /10.250.15.240
13200	081109 203730 208 INFO dfs.DataNode$PacketResponder: Received block blk_4781267590044428130 of size 67108864 from /10.251.71.146
13201	081109 203730 208 INFO dfs.DataNode$PacketResponder: Received block blk_-4842669713490791548 of size 67108864 from /10.251.107.50
13202	081109 203730 209 INFO dfs.DataNode$PacketResponder: PacketResponder 2 for block blk_-4842669713490791548 terminating
13203	081109 203730 209 INFO dfs.DataNode$PacketResponder: Received block blk_-4842669713490791548 of size 67108864 from /10.251.107.50
13204	081109 203730 210 INFO dfs.DataNode$PacketResponder: PacketResponder 2 for block blk_-789121331302408582 terminating
13205	081109 203730 211 INFO dfs.DataNode$PacketResponder: PacketResponder 2 for block blk_-5748259780611159029 terminating
13206	081109 203730 211 INFO dfs.DataNode$PacketResponder: Received block blk_-5748259780611159029 of size 67108864 from /10.250.7.230
13207	081109 203730 213 INFO dfs.DataNode$PacketResponder: PacketResponder 0 for block blk_-8210880014890305322 terminating
13208	081109 203730 213 INFO dfs.DataNode$PacketResponder: PacketResponder 2 for block blk_-8210880014890305322 terminating
13209	081109 203730 213 INFO dfs.DataNode$PacketResponder: Received block blk_-8210880014890305322 of size 67108864 from /10.250.10.144
13210	081109 203730 213 INFO dfs.DataNode$PacketResponder: Received block blk_-8210880014890305322 of size 67108864 from /10.250.5.237
13211	081109 203730 214 INFO dfs.DataNode$PacketResponder: PacketResponder 0 for block blk_-5748259780611159029 terminating
13212	081109 203730 214 INFO dfs.DataNode$PacketResponder: Received block blk_-5748259780611159029 of size 67108864 from /10.251.65.237
13213	081109 203730 215 INFO dfs.DataNode$PacketResponder: PacketResponder 1 for block blk_-8210880014890305322 terminating
13214	081109 203730 215 INFO dfs.DataNode$PacketResponder: Received block blk_-8210880014890305322 of size 67108864 from /10.250.10.144
13215	081109 203730 218 INFO dfs.DataNode$DataXceiver: Receiving block blk_-3732170362550357185 src: /10.250.7.32:32865 dest: /10.250.7.32:50010
13216	081109 203730 218 INFO dfs.DataNode$PacketResponder: PacketResponder 0 for block blk_6895841870911683124 terminating
13217	081109 203730 218 INFO dfs.DataNode$PacketResponder: Received block blk_6895841870911683124 of size 67108864 from /10.251.123.33
13218	081109 203730 219 INFO dfs.DataNode$DataXceiver: Receiving block blk_6571332664694652693 src: /10.251.127.243:33202 dest: /10.251.127.243:50010
13219	081109 203730 219 INFO dfs.DataNode$DataXceiver: Receiving block blk_727384415632995899 src: /10.251.203.166:53830 dest: /10.251.203.166:50010
13220	081109 203730 219 INFO dfs.DataNode$PacketResponder: PacketResponder 0 for block blk_-7728911370677562061 terminating
13221	081109 203730 219 INFO dfs.DataNode$PacketResponder: Received block blk_-7728911370677562061 of size 67108864 from /10.251.203.246
13222	081109 203730 220 INFO dfs.DataNode$DataXceiver: Receiving block blk_-3504225906354855761 src: /10.251.107.50:38833 dest: /10.251.107.50:50010
13223	081109 203730 220 INFO dfs.DataNode$DataXceiver: Receiving block blk_6571332664694652693 src: /10.250.18.114:56951 dest: /10.250.18.114:50010
13224	081109 203730 220 INFO dfs.DataNode$DataXceiver: Receiving block blk_6571332664694652693 src: /10.251.127.243:46809 dest: /10.251.127.243:50010
13225	081109 203730 220 INFO dfs.DataNode$DataXceiver: Receiving block blk_-8111755175278120764 src: /10.251.107.50:45860 dest: /10.251.107.50:50010
13226	081109 203730 220 INFO dfs.DataNode$PacketResponder: PacketResponder 2 for block blk_3151206812686960851 terminating
13227	081109 203730 220 INFO dfs.DataNode$PacketResponder: Received block blk_3151206812686960851 of size 67108864 from /10.250.14.224
13228	081109 203730 221 INFO dfs.DataNode$DataXceiver: Receiving block blk_-4025403648467660366 src: /10.251.194.102:58448 dest: /10.251.194.102:50010
13229	081109 203730 221 INFO dfs.DataNode$DataXceiver: Receiving block blk_4993285353249707081 src: /10.251.110.68:56545 dest: /10.251.110.68:50010
13230	081109 203730 222 INFO dfs.DataNode$DataXceiver: Receiving block blk_-7860072815013493684 src: /10.251.75.49:36631 dest: /10.251.75.49:50010
13231	081109 203730 224 INFO dfs.DataNode$DataXceiver: Receiving block blk_-3504225906354855761 src: /10.251.107.50:50697 dest: /10.251.107.50:50010
13232	081109 203730 224 INFO dfs.DataNode$DataXceiver: Receiving block blk_3644589028179739497 src: /10.251.70.37:44574 dest: /10.251.70.37:50010
13233	081109 203730 225 INFO dfs.DataNode$DataXceiver: Receiving block blk_-3052431536932607735 src: /10.251.123.1:38384 dest: /10.251.123.1:50010
13234	081109 203730 225 INFO dfs.DataNode$DataXceiver: Receiving block blk_-4025403648467660366 src: /10.251.127.243:39276 dest: /10.251.127.243:50010
13235	081109 203730 225 INFO dfs.DataNode$DataXceiver: Receiving block blk_-5941183336447065792 src: /10.251.195.33:39242 dest: /10.251.195.33:50010
13236	081109 203730 225 INFO dfs.DataNode$DataXceiver: Receiving block blk_-8111755175278120764 src: /10.251.107.50:50699 dest: /10.251.107.50:50010
13237	081109 203730 227 INFO dfs.DataNode$DataXceiver: Receiving block blk_2675280659010207693 src: /10.251.198.196:53730 dest: /10.251.198.196:50010
13238	081109 203730 227 INFO dfs.DataNode$DataXceiver: Receiving block blk_-4545249265623052954 src: /10.251.127.243:33249 dest: /10.251.127.243:50010
13239	081109 203730 227 INFO dfs.DataNode$DataXceiver: Receiving block blk_8108961284173445463 src: /10.251.214.67:54971 dest: /10.251.214.67:50010
13240	081109 203730 227 INFO dfs.DataNode$DataXceiver: Receiving block blk_8108961284173445463 src: /10.251.214.67:59009 dest: /10.251.214.67:50010
13241	081109 203730 227 INFO dfs.DataNode$DataXceiver: Receiving block blk_-8394978123314571529 src: /10.250.13.240:55350 dest: /10.250.13.240:50010
13242	081109 203730 228 INFO dfs.DataNode$DataXceiver: Receiving block blk_3002288343130146495 src: /10.250.7.230:40379 dest: /10.250.7.230:50010
13243	081109 203730 228 INFO dfs.DataNode$DataXceiver: Receiving block blk_6664251586568985738 src: /10.251.66.192:44305 dest: /10.251.66.192:50010
13244	081109 203730 229 INFO dfs.DataNode$DataXceiver: Receiving block blk_5283134960555549953 src: /10.251.202.134:48804 dest: /10.251.202.134:50010
13245	081109 203730 229 INFO dfs.DataNode$DataXceiver: Receiving block blk_8108961284173445463 src: /10.251.125.174:34480 dest: /10.251.125.174:50010
13246	081109 203730 230 INFO dfs.DataNode$PacketResponder: PacketResponder 1 for block blk_-6213697702703799581 terminating
13247	081109 203730 230 INFO dfs.DataNode$PacketResponder: Received block blk_-6213697702703799581 of size 67108864 from /10.251.39.209
13248	081109 203730 233 INFO dfs.DataNode$DataXceiver: Receiving block blk_-2033526004731990730 src: /10.251.215.16:42635 dest: /10.251.215.16:50010
13249	081109 203730 233 INFO dfs.DataNode$DataXceiver: Receiving block blk_-3504225906354855761 src: /10.251.195.52:45156 dest: /10.251.195.52:50010
13250	081109 203730 233 INFO dfs.DataNode$PacketResponder: PacketResponder 2 for block blk_3174751483965949562 terminating
13251	081109 203730 233 INFO dfs.DataNode$PacketResponder: Received block blk_3174751483965949562 of size 67108864 from /10.251.215.16
13252	081109 203730 248 INFO dfs.DataNode$DataXceiver: Receiving block blk_-8394978123314571529 src: /10.250.13.240:36125 dest: /10.250.13.240:50010
13253	081109 203730 253 INFO dfs.DataNode$DataXceiver: Receiving block blk_-2033526004731990730 src: /10.251.215.16:51046 dest: /10.251.215.16:50010
13254	081109 203730 26 INFO dfs.FSNamesystem: BLOCK* NameSystem.addStoredBlock: blockMap updated: 10.250.13.240:50010 is added to blk_-5828680349927396673 size 67108864
13255	081109 203730 26 INFO dfs.FSNamesystem: BLOCK* NameSystem.addStoredBlock: blockMap updated: 10.251.126.255:50010 is added to blk_-5718566902774898133 size 67108864
13256	081109 203730 26 INFO dfs.FSNamesystem: BLOCK* NameSystem.addStoredBlock: blockMap updated: 10.251.31.160:50010 is added to blk_-8875853476597140925 size 67108864
13257	081109 203730 26 INFO dfs.FSNamesystem: BLOCK* NameSystem.addStoredBlock: blockMap updated: 10.251.43.115:50010 is added to blk_8338938300524612323 size 67108864
13258	081109 203730 26 INFO dfs.FSNamesystem: BLOCK* NameSystem.allocateBlock: /user/root/rand/_temporary/_task_200811092030_0001_m_000234_0/part-00234. blk_3002288343130146495
13259	081109 203730 27 INFO dfs.FSNamesystem: BLOCK* NameSystem.addStoredBlock: blockMap updated: 10.250.7.230:50010 is added to blk_-5748259780611159029 size 67108864
13260	081109 203730 27 INFO dfs.FSNamesystem: BLOCK* NameSystem.addStoredBlock: blockMap updated: 10.251.107.50:50010 is added to blk_-437445126274247464 size 67108864
13261	081109 203730 27 INFO dfs.FSNamesystem: BLOCK* NameSystem.addStoredBlock: blockMap updated: 10.251.107.50:50010 is added to blk_-4842669713490791548 size 67108864
13262	081109 203730 27 INFO dfs.FSNamesystem: BLOCK* NameSystem.addStoredBlock: blockMap updated: 10.251.127.243:50010 is added to blk_2703171498968003133 size 67108864
13263	081109 203730 27 INFO dfs.FSNamesystem: BLOCK* NameSystem.addStoredBlock: blockMap updated: 10.251.203.246:50010 is added to blk_-7728911370677562061 size 67108864
13264	081109 203730 27 INFO dfs.FSNamesystem: BLOCK* NameSystem.addStoredBlock: blockMap updated: 10.251.65.237:50010 is added to blk_-5748259780611159029 size 67108864
13265	081109 203730 27 INFO dfs.FSNamesystem: BLOCK* NameSystem.addStoredBlock: blockMap updated: 10.251.71.146:50010 is added to blk_3081790587987964865 size 67108864
13266	081109 203730 28 INFO dfs.FSNamesystem: BLOCK* NameSystem.addStoredBlock: blockMap updated: 10.250.19.16:50010 is added to blk_6895841870911683124 size 67108864
13267	081109 203730 28 INFO dfs.FSNamesystem: BLOCK* NameSystem.addStoredBlock: blockMap updated: 10.250.7.32:50010 is added to blk_-5718566902774898133 size 67108864
13268	081109 203730 28 INFO dfs.FSNamesystem: BLOCK* NameSystem.addStoredBlock: blockMap updated: 10.251.214.175:50010 is added to blk_-1654072451124467407 size 67108864
13269	081109 203730 28 INFO dfs.FSNamesystem: BLOCK* NameSystem.addStoredBlock: blockMap updated: 10.251.39.242:50010 is added to blk_-5828680349927396673 size 67108864
13270	081109 203730 28 INFO dfs.FSNamesystem: BLOCK* NameSystem.addStoredBlock: blockMap updated: 10.251.71.146:50010 is added to blk_3151206812686960851 size 67108864
13271	081109 203730 28 INFO dfs.FSNamesystem: BLOCK* NameSystem.addStoredBlock: blockMap updated: 10.251.71.97:50010 is added to blk_-8210880014890305322 size 67108864
13272	081109 203730 28 INFO dfs.FSNamesystem: BLOCK* NameSystem.allocateBlock: /user/root/rand/_temporary/_task_200811092030_0001_m_000214_0/part-00214. blk_2675280659010207693
13273	081109 203730 28 INFO dfs.FSNamesystem: BLOCK* NameSystem.allocateBlock: /user/root/rand/_temporary/_task_200811092030_0001_m_000305_0/part-00305. blk_-8111755175278120764
13274	081109 203730 29 INFO dfs.FSNamesystem: BLOCK* NameSystem.addStoredBlock: blockMap updated: 10.251.110.68:50010 is added to blk_2294600790656816655 size 67108864
13275	081109 203730 29 INFO dfs.FSNamesystem: BLOCK* NameSystem.addStoredBlock: blockMap updated: 10.251.121.224:50010 is added to blk_3081790587987964865 size 67108864
13276	081109 203730 29 INFO dfs.FSNamesystem: BLOCK* NameSystem.addStoredBlock: blockMap updated: 10.251.215.16:50010 is added to blk_3174751483965949562 size 67108864
13277	081109 203730 30 INFO dfs.FSNamesystem: BLOCK* NameSystem.addStoredBlock: blockMap updated: 10.250.10.144:50010 is added to blk_-8210880014890305322 size 67108864
13278	081109 203730 30 INFO dfs.FSNamesystem: BLOCK* NameSystem.addStoredBlock: blockMap updated: 10.250.11.53:50010 is added to blk_8338938300524612323 size 67108864
13279	081109 203730 30 INFO dfs.FSNamesystem: BLOCK* NameSystem.addStoredBlock: blockMap updated: 10.250.5.237:50010 is added to blk_-8210880014890305322 size 67108864
13280	081109 203730 30 INFO dfs.FSNamesystem: BLOCK* NameSystem.addStoredBlock: blockMap updated: 10.251.193.175:50010 is added to blk_2294600790656816655 size 67108864
13281	081109 203730 30 INFO dfs.FSNamesystem: BLOCK* NameSystem.addStoredBlock: blockMap updated: 10.251.203.246:50010 is added to blk_107679466757866349 size 67108864
13282	081109 203730 30 INFO dfs.FSNamesystem: BLOCK* NameSystem.addStoredBlock: blockMap updated: 10.251.39.209:50010 is added to blk_-6213697702703799581 size 67108864
13283	081109 203730 30 INFO dfs.FSNamesystem: BLOCK* NameSystem.addStoredBlock: blockMap updated: 10.251.71.146:50010 is added to blk_4781267590044428130 size 67108864
13284	081109 203730 30 INFO dfs.FSNamesystem: BLOCK* NameSystem.addStoredBlock: blockMap updated: 10.251.71.97:50010 is added to blk_-6213697702703799581 size 67108864
13285	081109 203730 30 INFO dfs.FSNamesystem: BLOCK* NameSystem.addStoredBlock: blockMap updated: 10.251.90.239:50010 is added to blk_-5718566902774898133 size 67108864
13286	081109 203730 30 INFO dfs.FSNamesystem: BLOCK* NameSystem.allocateBlock: /user/root/rand/_temporary/_task_200811092030_0001_m_000073_0/part-00073. blk_8108961284173445463
13287	081109 203730 30 INFO dfs.FSNamesystem: BLOCK* NameSystem.allocateBlock: /user/root/rand/_temporary/_task_200811092030_0001_m_000209_0/part-00209. blk_-3732170362550357185
13288	081109 203730 31 INFO dfs.FSNamesystem: BLOCK* NameSystem.addStoredBlock: blockMap updated: 10.251.123.33:50010 is added to blk_6895841870911683124 size 67108864
13289	081109 203730 31 INFO dfs.FSNamesystem: BLOCK* NameSystem.addStoredBlock: blockMap updated: 10.251.126.22:50010 is added to blk_7267150903868949897 size 67108864
13290	081109 203730 31 INFO dfs.FSNamesystem: BLOCK* NameSystem.addStoredBlock: blockMap updated: 10.251.194.245:50010 is added to blk_-1654072451124467407 size 67108864
13291	081109 203730 31 INFO dfs.FSNamesystem: BLOCK* NameSystem.addStoredBlock: blockMap updated: 10.251.198.196:50010 is added to blk_6895841870911683124 size 67108864
13292	081109 203730 31 INFO dfs.FSNamesystem: BLOCK* NameSystem.addStoredBlock: blockMap updated: 10.251.66.192:50010 is added to blk_-789121331302408582 size 67108864
13293	081109 203730 31 INFO dfs.FSNamesystem: BLOCK* NameSystem.addStoredBlock: blockMap updated: 10.251.75.49:50010 is added to blk_107679466757866349 size 67108864
13294	081109 203730 31 INFO dfs.FSNamesystem: BLOCK* NameSystem.addStoredBlock: blockMap updated: 10.251.91.229:50010 is added to blk_-437445126274247464 size 67108864
13295	081109 203730 31 INFO dfs.FSNamesystem: BLOCK* NameSystem.allocateBlock: /user/root/rand/_temporary/_task_200811092030_0001_m_000146_0/part-00146. blk_-7860072815013493684
13296	081109 203730 32 INFO dfs.FSNamesystem: BLOCK* NameSystem.addStoredBlock: blockMap updated: 10.250.15.101:50010 is added to blk_-437445126274247464 size 67108864
13297	081109 203730 32 INFO dfs.FSNamesystem: BLOCK* NameSystem.addStoredBlock: blockMap updated: 10.251.123.195:50010 is added to blk_2703171498968003133 size 67108864
13298	081109 203730 32 INFO dfs.FSNamesystem: BLOCK* NameSystem.addStoredBlock: blockMap updated: 10.251.203.166:50010 is added to blk_3081790587987964865 size 67108864
13299	081109 203730 32 INFO dfs.FSNamesystem: BLOCK* NameSystem.addStoredBlock: blockMap updated: 10.251.214.32:50010 is added to blk_4357939960446746871 size 67108864
13300	081109 203730 32 INFO dfs.FSNamesystem: BLOCK* NameSystem.addStoredBlock: blockMap updated: 10.251.31.5:50010 is added to blk_-7728911370677562061 size 67108864
13301	081109 203730 32 INFO dfs.FSNamesystem: BLOCK* NameSystem.allocateBlock: /user/root/rand/_temporary/_task_200811092030_0001_m_000048_0/part-00048. blk_6664251586568985738
13302	081109 203730 32 INFO dfs.FSNamesystem: BLOCK* NameSystem.allocateBlock: /user/root/rand/_temporary/_task_200811092030_0001_m_000101_0/part-00101. blk_-3504225906354855761
13303	081109 203730 33 INFO dfs.FSNamesystem: BLOCK* NameSystem.addStoredBlock: blockMap updated: 10.251.106.10:50010 is added to blk_3174751483965949562 size 67108864
13304	081109 203730 33 INFO dfs.FSNamesystem: BLOCK* NameSystem.addStoredBlock: blockMap updated: 10.251.111.130:50010 is added to blk_2703171498968003133 size 67108864
13305	081109 203730 33 INFO dfs.FSNamesystem: BLOCK* NameSystem.addStoredBlock: blockMap updated: 10.251.195.33:50010 is added to blk_7267150903868949897 size 67108864
13306	081109 203730 33 INFO dfs.FSNamesystem: BLOCK* NameSystem.addStoredBlock: blockMap updated: 10.251.203.4:50010 is added to blk_8777422202136655045 size 67108864
13307	081109 203730 33 INFO dfs.FSNamesystem: BLOCK* NameSystem.addStoredBlock: blockMap updated: 10.251.38.197:50010 is added to blk_7267150903868949897 size 67108864
13308	081109 203730 33 INFO dfs.FSNamesystem: BLOCK* NameSystem.addStoredBlock: blockMap updated: 10.251.71.193:50010 is added to blk_-6213697702703799581 size 67108864
13309	081109 203730 33 INFO dfs.FSNamesystem: BLOCK* NameSystem.allocateBlock: /user/root/rand/_temporary/_task_200811092030_0001_m_000307_0/part-00307. blk_4993285353249707081
13310	081109 203730 33 INFO dfs.FSNamesystem: BLOCK* NameSystem.allocateBlock: /user/root/rand/_temporary/_task_200811092030_0001_m_000389_0/part-00389. blk_-8394978123314571529
13311	081109 203730 34 INFO dfs.FSNamesystem: BLOCK* NameSystem.addStoredBlock: blockMap updated: 10.251.107.242:50010 is added to blk_-4842669713490791548 size 67108864
13312	081109 203730 34 INFO dfs.FSNamesystem: BLOCK* NameSystem.addStoredBlock: blockMap updated: 10.251.71.68:50010 is added to blk_-4842669713490791548 size 67108864
13313	081109 203730 34 INFO dfs.FSNamesystem: BLOCK* NameSystem.addStoredBlock: blockMap updated: 10.251.90.239:50010 is added to blk_3151206812686960851 size 67108864
13314	081109 203730 34 INFO dfs.FSNamesystem: BLOCK* NameSystem.allocateBlock: /user/root/rand/_temporary/_task_200811092030_0001_m_000042_0/part-00042. blk_-2033526004731990730
13315	081109 203730 35 INFO dfs.FSNamesystem: BLOCK* NameSystem.addStoredBlock: blockMap updated: 10.250.15.67:50010 is added to blk_8338938300524612323 size 67108864
13316	081109 203730 35 INFO dfs.FSNamesystem: BLOCK* NameSystem.addStoredBlock: blockMap updated: 10.250.7.230:50010 is added to blk_-5828680349927396673 size 67108864
13317	081109 203730 35 INFO dfs.FSNamesystem: BLOCK* NameSystem.addStoredBlock: blockMap updated: 10.251.214.67:50010 is added to blk_-8875853476597140925 size 67108864
13318	081109 203730 35 INFO dfs.FSNamesystem: BLOCK* NameSystem.addStoredBlock: blockMap updated: 10.251.26.177:50010 is added to blk_4357939960446746871 size 67108864
13319	081109 203730 35 INFO dfs.FSNamesystem: BLOCK* NameSystem.addStoredBlock: blockMap updated: 10.251.39.144:50010 is added to blk_8777422202136655045 size 67108864
13320	081109 203730 35 INFO dfs.FSNamesystem: BLOCK* NameSystem.allocateBlock: /user/root/rand/_temporary/_task_200811092030_0001_m_000008_0/part-00008. blk_6571332664694652693
13321	081109 203730 35 INFO dfs.FSNamesystem: BLOCK* NameSystem.allocateBlock: /user/root/rand/_temporary/_task_200811092030_0001_m_000221_0/part-00221. blk_727384415632995899
13322	081109 203730 35 INFO dfs.FSNamesystem: BLOCK* NameSystem.allocateBlock: /user/root/rand/_temporary/_task_200811092030_0001_m_000223_0/part-00223. blk_-5941183336447065792
13323	081109 203730 35 INFO dfs.FSNamesystem: BLOCK* NameSystem.allocateBlock: /user/root/rand/_temporary/_task_200811092030_0001_m_000317_0/part-00317. blk_5291299873919879108
13324	081109 203731 13 INFO dfs.DataBlockScanner: Verification succeeded for blk_-3193540685585849952
13325	081109 203731 189 INFO dfs.DataNode$PacketResponder: PacketResponder 0 for block blk_-2296590692202564606 terminating
13326	081109 203731 189 INFO dfs.DataNode$PacketResponder: Received block blk_-2296590692202564606 of size 67108864 from /10.251.215.16
13327	081109 203731 190 INFO dfs.DataNode$PacketResponder: PacketResponder 1 for block blk_7969503050474875700 terminating
13328	081109 203731 190 INFO dfs.DataNode$PacketResponder: PacketResponder 2 for block blk_-2296590692202564606 terminating
13329	081109 203731 190 INFO dfs.DataNode$PacketResponder: Received block blk_-2296590692202564606 of size 67108864 from /10.251.106.37
13330	081109 203731 190 INFO dfs.DataNode$PacketResponder: Received block blk_7969503050474875700 of size 67108864 from /10.251.123.1
13331	081109 203731 192 INFO dfs.DataNode$PacketResponder: PacketResponder 2 for block blk_7969503050474875700 terminating
13332	081109 203731 192 INFO dfs.DataNode$PacketResponder: Received block blk_7969503050474875700 of size 67108864 from /10.251.123.1
13333	081109 203731 194 INFO dfs.DataNode$PacketResponder: PacketResponder 2 for block blk_5167296799288638509 terminating
13334	081109 203731 194 INFO dfs.DataNode$PacketResponder: PacketResponder 2 for block blk_7516861970835508319 terminating
13335	081109 203731 194 INFO dfs.DataNode$PacketResponder: Received block blk_5167296799288638509 of size 67108864 from /10.251.75.143
13336	081109 203731 194 INFO dfs.DataNode$PacketResponder: Received block blk_7516861970835508319 of size 67108864 from /10.251.214.225
13337	081109 203731 196 INFO dfs.DataNode$PacketResponder: PacketResponder 1 for block blk_7516861970835508319 terminating
13338	081109 203731 196 INFO dfs.DataNode$PacketResponder: PacketResponder 2 for block blk_4781267590044428130 terminating
13339	081109 203731 196 INFO dfs.DataNode$PacketResponder: Received block blk_4781267590044428130 of size 67108864 from /10.250.15.240
13340	081109 203731 196 INFO dfs.DataNode$PacketResponder: Received block blk_7516861970835508319 of size 67108864 from /10.251.214.225
13341	081109 203731 197 INFO dfs.DataNode$PacketResponder: PacketResponder 0 for block blk_7969503050474875700 terminating
13342	081109 203731 197 INFO dfs.DataNode$PacketResponder: Received block blk_7969503050474875700 of size 67108864 from /10.250.10.213
13343	081109 203731 198 INFO dfs.DataNode$PacketResponder: PacketResponder 0 for block blk_1769784888228461388 terminating
13344	081109 203731 198 INFO dfs.DataNode$PacketResponder: PacketResponder 0 for block blk_7516861970835508319 terminating
13345	081109 203731 198 INFO dfs.DataNode$PacketResponder: Received block blk_1769784888228461388 of size 67108864 from /10.251.73.188
13346	081109 203731 198 INFO dfs.DataNode$PacketResponder: Received block blk_7516861970835508319 of size 67108864 from /10.251.42.207
13347	081109 203731 201 INFO dfs.DataNode$PacketResponder: PacketResponder 1 for block blk_5167296799288638509 terminating
13348	081109 203731 201 INFO dfs.DataNode$PacketResponder: Received block blk_5167296799288638509 of size 67108864 from /10.251.75.143
13349	081109 203731 203 INFO dfs.DataNode$PacketResponder: PacketResponder 0 for block blk_-2590057905078537066 terminating
13350	081109 203731 203 INFO dfs.DataNode$PacketResponder: PacketResponder 2 for block blk_-7728911370677562061 terminating
13351	081109 203731 203 INFO dfs.DataNode$PacketResponder: Received block blk_-2590057905078537066 of size 67108864 from /10.251.111.228
13352	081109 203731 203 INFO dfs.DataNode$PacketResponder: Received block blk_-7728911370677562061 of size 67108864 from /10.251.107.196
13353	081109 203731 204 INFO dfs.DataNode$PacketResponder: PacketResponder 1 for block blk_321836615356633577 terminating
13354	081109 203731 204 INFO dfs.DataNode$PacketResponder: PacketResponder 2 for block blk_321836615356633577 terminating
13355	081109 203731 204 INFO dfs.DataNode$PacketResponder: PacketResponder 2 for block blk_993316727245644324 terminating
13356	081109 203731 204 INFO dfs.DataNode$PacketResponder: Received block blk_321836615356633577 of size 67108864 from /10.251.199.245
13357	081109 203731 204 INFO dfs.DataNode$PacketResponder: Received block blk_321836615356633577 of size 67108864 from /10.251.199.245
13358	081109 203731 204 INFO dfs.DataNode$PacketResponder: Received block blk_993316727245644324 of size 67108864 from /10.251.197.161
13359	081109 203731 205 INFO dfs.DataNode$PacketResponder: PacketResponder 1 for block blk_-5072585453445081292 terminating
13360	081109 203731 205 INFO dfs.DataNode$PacketResponder: PacketResponder 2 for block blk_1769784888228461388 terminating
13361	081109 203731 205 INFO dfs.DataNode$PacketResponder: Received block blk_1769784888228461388 of size 67108864 from /10.251.107.98
13362	081109 203731 205 INFO dfs.DataNode$PacketResponder: Received block blk_-5072585453445081292 of size 67108864 from /10.250.9.207
13363	081109 203731 206 INFO dfs.DataNode$PacketResponder: PacketResponder 0 for block blk_6051183265899502163 terminating
13364	081109 203731 206 INFO dfs.DataNode$PacketResponder: Received block blk_6051183265899502163 of size 67108864 from /10.250.11.100
13365	081109 203731 207 INFO dfs.DataNode$PacketResponder: PacketResponder 0 for block blk_5167296799288638509 terminating
13366	081109 203731 207 INFO dfs.DataNode$PacketResponder: Received block blk_5167296799288638509 of size 67108864 from /10.251.202.181
13367	081109 203731 208 INFO dfs.DataNode$PacketResponder: PacketResponder 1 for block blk_993316727245644324 terminating
13368	081109 203731 208 INFO dfs.DataNode$PacketResponder: Received block blk_993316727245644324 of size 67108864 from /10.251.197.161
13369	081109 203731 209 INFO dfs.DataNode$PacketResponder: PacketResponder 0 for block blk_321836615356633577 terminating
13370	081109 203731 209 INFO dfs.DataNode$PacketResponder: PacketResponder 2 for block blk_-1642472372717781799 terminating
13371	081109 203731 209 INFO dfs.DataNode$PacketResponder: Received block blk_-1642472372717781799 of size 67108864 from /10.251.91.15
13372	081109 203731 209 INFO dfs.DataNode$PacketResponder: Received block blk_321836615356633577 of size 67108864 from /10.251.26.8
13373	081109 203731 210 INFO dfs.DataNode$PacketResponder: PacketResponder 0 for block blk_-1642472372717781799 terminating
13374	081109 203731 210 INFO dfs.DataNode$PacketResponder: PacketResponder 0 for block blk_993316727245644324 terminating
13375	081109 203731 210 INFO dfs.DataNode$PacketResponder: Received block blk_-1642472372717781799 of size 67108864 from /10.251.75.79
13376	081109 203731 210 INFO dfs.DataNode$PacketResponder: Received block blk_993316727245644324 of size 67108864 from /10.251.91.229
13377	081109 203731 213 INFO dfs.DataNode$PacketResponder: PacketResponder 2 for block blk_-5072585453445081292 terminating
13378	081109 203731 213 INFO dfs.DataNode$PacketResponder: PacketResponder 2 for block blk_6051183265899502163 terminating
13379	081109 203731 213 INFO dfs.DataNode$PacketResponder: Received block blk_-5072585453445081292 of size 67108864 from /10.250.9.207
13380	081109 203731 213 INFO dfs.DataNode$PacketResponder: Received block blk_6051183265899502163 of size 67108864 from /10.251.106.10
13381	081109 203731 214 INFO dfs.DataNode$PacketResponder: PacketResponder 1 for block blk_-2590057905078537066 terminating
13382	081109 203731 214 INFO dfs.DataNode$PacketResponder: Received block blk_-2590057905078537066 of size 67108864 from /10.251.27.63
13383	081109 203731 216 INFO dfs.DataNode$PacketResponder: PacketResponder 1 for block blk_1769784888228461388 terminating
13384	081109 203731 216 INFO dfs.DataNode$PacketResponder: PacketResponder 1 for block blk_-2296590692202564606 terminating
13385	081109 203731 216 INFO dfs.DataNode$PacketResponder: Received block blk_1769784888228461388 of size 67108864 from /10.251.107.98
13386	081109 203731 216 INFO dfs.DataNode$PacketResponder: Received block blk_-2296590692202564606 of size 67108864 from /10.251.106.37
13387	081109 203731 218 INFO dfs.DataNode$DataXceiver: Receiving block blk_-5941183336447065792 src: /10.251.195.33:33505 dest: /10.251.195.33:50010
13388	081109 203731 219 INFO dfs.DataNode$DataXceiver: Receiving block blk_2750875891098809495 src: /10.251.123.1:52278 dest: /10.251.123.1:50010
13389	081109 203731 219 INFO dfs.DataNode$DataXceiver: Receiving block blk_727384415632995899 src: /10.251.203.166:54993 dest: /10.251.203.166:50010
13390	081109 203731 219 INFO dfs.DataNode$PacketResponder: PacketResponder 0 for block blk_-8550552202569216374 terminating
13391	081109 203731 219 INFO dfs.DataNode$PacketResponder: Received block blk_-8550552202569216374 of size 67108864 from /10.250.7.96
13392	081109 203731 220 INFO dfs.DataNode$DataXceiver: Receiving block blk_6051030458020008448 src: /10.251.75.143:56746 dest: /10.251.75.143:50010
13393	081109 203731 221 INFO dfs.DataNode$DataXceiver: Receiving block blk_-3214720873691700791 src: /10.251.214.225:53361 dest: /10.251.214.225:50010
13394	081109 203731 221 INFO dfs.DataNode$DataXceiver: Receiving block blk_5766851074090750602 src: /10.250.15.240:38479 dest: /10.250.15.240:50010
13395	081109 203731 221 INFO dfs.DataNode$DataXceiver: Receiving block blk_7961271969920687234 src: /10.251.39.209:49888 dest: /10.251.39.209:50010
13396	081109 203731 222 INFO dfs.DataNode$DataXceiver: Receiving block blk_-4735114931705254565 src: /10.250.14.224:56961 dest: /10.250.14.224:50010
13397	081109 203731 222 INFO dfs.DataNode$DataXceiver: Receiving block blk_5693107986425482799 src: /10.251.197.161:51798 dest: /10.251.197.161:50010
13398	081109 203731 222 INFO dfs.DataNode$DataXceiver: Receiving block blk_5766851074090750602 src: /10.250.15.240:43842 dest: /10.250.15.240:50010
13399	081109 203731 222 INFO dfs.DataNode$DataXceiver: Receiving block blk_6664251586568985738 src: /10.251.66.192:54514 dest: /10.251.66.192:50010
13400	081109 203731 222 INFO dfs.DataNode$DataXceiver: Receiving block blk_8183499320232702853 src: /10.251.107.98:39367 dest: /10.251.107.98:50010
13401	081109 203731 222 INFO dfs.DataNode$DataXceiver: Receiving block blk_9036962293154594303 src: /10.251.91.15:33440 dest: /10.251.91.15:50010
13402	081109 203731 222 INFO dfs.DataNode$DataXceiver: Receiving block blk_9036962293154594303 src: /10.251.91.15:45755 dest: /10.251.91.15:50010
13403	081109 203731 222 INFO dfs.DataNode$PacketResponder: PacketResponder 0 for block blk_-5072585453445081292 terminating
13404	081109 203731 222 INFO dfs.DataNode$PacketResponder: Received block blk_-5072585453445081292 of size 67108864 from /10.251.126.227
13405	081109 203731 223 INFO dfs.DataNode$DataXceiver: Receiving block blk_2750875891098809495 src: /10.251.123.1:33721 dest: /10.251.123.1:50010
13406	081109 203731 223 INFO dfs.DataNode$DataXceiver: Receiving block blk_-3732170362550357185 src: /10.251.126.5:58307 dest: /10.251.126.5:50010
13407	081109 203731 223 INFO dfs.DataNode$DataXceiver: Receiving block blk_-4069087448078482387 src: /10.251.71.16:60846 dest: /10.251.71.16:50010
13408	081109 203731 223 INFO dfs.DataNode$DataXceiver: Receiving block blk_-4545249265623052954 src: /10.250.11.85:51795 dest: /10.250.11.85:50010
13409	081109 203731 224 INFO dfs.DataNode$DataXceiver: Receiving block blk_-4735114931705254565 src: /10.251.74.192:60508 dest: /10.251.74.192:50010
13410	081109 203731 224 INFO dfs.DataNode$DataXceiver: Receiving block blk_4993285353249707081 src: /10.251.74.192:48217 dest: /10.251.74.192:50010
13411	081109 203731 224 INFO dfs.DataNode$DataXceiver: Receiving block blk_8175851299320156871 src: /10.250.14.224:39075 dest: /10.250.14.224:50010
13412	081109 203731 224 INFO dfs.DataNode$DataXceiver: Receiving block blk_9036962293154594303 src: /10.251.42.246:42470 dest: /10.251.42.246:50010
13413	081109 203731 225 INFO dfs.DataNode$DataXceiver: Receiving block blk_2390944746532556340 src: /10.250.15.67:46547 dest: /10.250.15.67:50010
13414	081109 203731 225 INFO dfs.DataNode$DataXceiver: Receiving block blk_-4577192798445174452 src: /10.251.198.196:59291 dest: /10.251.198.196:50010
13415	081109 203731 227 INFO dfs.DataNode$DataXceiver: Receiving block blk_-3177524613160405610 src: /10.251.43.147:41173 dest: /10.251.43.147:50010
13416	081109 203731 227 INFO dfs.DataNode$DataXceiver: Receiving block blk_-3732170362550357185 src: /10.250.7.32:43372 dest: /10.250.7.32:50010
13417	081109 203731 227 INFO dfs.DataNode$DataXceiver: Receiving block blk_7961271969920687234 src: /10.251.39.209:37802 dest: /10.251.39.209:50010
13418	081109 203731 228 INFO dfs.DataNode$DataXceiver: Receiving block blk_4656701484219983831 src: /10.251.193.175:45793 dest: /10.251.193.175:50010
13419	081109 203731 228 INFO dfs.DataNode$DataXceiver: Receiving block blk_-5941183336447065792 src: /10.250.7.244:38047 dest: /10.250.7.244:50010
13420	081109 203731 228 INFO dfs.DataNode$DataXceiver: Receiving block blk_727384415632995899 src: /10.250.15.240:49684 dest: /10.250.15.240:50010
13421	081109 203731 229 INFO dfs.DataNode$DataXceiver: Receiving block blk_4656701484219983831 src: /10.250.10.144:60418 dest: /10.250.10.144:50010
13422	081109 203731 229 INFO dfs.DataNode$DataXceiver: Receiving block blk_5291299873919879108 src: /10.251.70.211:48382 dest: /10.251.70.211:50010
13423	081109 203731 229 INFO dfs.DataNode$DataXceiver: Receiving block blk_6207632596595610640 src: /10.251.107.196:47898 dest: /10.251.107.196:50010
13424	081109 203731 229 INFO dfs.DataNode$PacketResponder: PacketResponder 2 for block blk_-1654072451124467407 terminating
13425	081109 203731 229 INFO dfs.DataNode$PacketResponder: Received block blk_-1654072451124467407 of size 67108864 from /10.250.14.224
13426	081109 203731 230 INFO dfs.DataNode$DataXceiver: Receiving block blk_6664251586568985738 src: /10.251.126.22:34195 dest: /10.251.126.22:50010
13427	081109 203731 231 INFO dfs.DataNode$DataXceiver: Receiving block blk_-7860072815013493684 src: /10.251.75.49:48844 dest: /10.251.75.49:50010
13428	081109 203731 232 INFO dfs.DataNode$DataXceiver: Receiving block blk_2390944746532556340 src: /10.250.15.67:57406 dest: /10.250.15.67:50010
13429	081109 203731 232 INFO dfs.DataNode$DataXceiver: Receiving block blk_8175851299320156871 src: /10.251.67.4:51581 dest: /10.251.67.4:50010
13430	081109 203731 233 INFO dfs.DataNode$DataXceiver: Receiving block blk_3002288343130146495 src: /10.250.7.230:46290 dest: /10.250.7.230:50010
13431	081109 203731 233 INFO dfs.DataNode$DataXceiver: Receiving block blk_4656701484219983831 src: /10.250.10.144:46591 dest: /10.250.10.144:50010
13432	081109 203731 234 INFO dfs.DataNode$DataXceiver: Receiving block blk_2750875891098809495 src: /10.251.66.102:43619 dest: /10.251.66.102:50010
13433	081109 203731 234 INFO dfs.DataNode$DataXceiver: Receiving block blk_-4069087448078482387 src: /10.251.90.239:40840 dest: /10.251.90.239:50010
13434	081109 203731 234 INFO dfs.DataNode$DataXceiver: Receiving block blk_-8111755175278120764 src: /10.251.125.193:49622 dest: /10.251.125.193:50010
13435	081109 203731 236 INFO dfs.DataNode$DataXceiver: Receiving block blk_-4069087448078482387 src: /10.251.71.16:51712 dest: /10.251.71.16:50010
13436	081109 203731 236 INFO dfs.DataNode$DataXceiver: Receiving block blk_5283134960555549953 src: /10.251.199.159:37682 dest: /10.251.199.159:50010
13437	081109 203731 238 INFO dfs.DataNode$DataXceiver: Receiving block blk_6051030458020008448 src: /10.251.75.143:48584 dest: /10.251.75.143:50010
13438	081109 203731 259 INFO dfs.DataNode$DataXceiver: Receiving block blk_-4735114931705254565 src: /10.250.14.224:35913 dest: /10.250.14.224:50010
13439	081109 203731 260 INFO dfs.DataNode$DataXceiver: Receiving block blk_8175851299320156871 src: /10.250.14.224:35915 dest: /10.250.14.224:50010
13440	081109 203731 26 INFO dfs.FSNamesystem: BLOCK* NameSystem.addStoredBlock: blockMap updated: 10.250.11.100:50010 is added to blk_6051183265899502163 size 67108864
13441	081109 203731 26 INFO dfs.FSNamesystem: BLOCK* NameSystem.addStoredBlock: blockMap updated: 10.251.111.130:50010 is added to blk_7516861970835508319 size 67108864
13442	081109 203731 26 INFO dfs.FSNamesystem: BLOCK* NameSystem.addStoredBlock: blockMap updated: 10.251.214.130:50010 is added to blk_1769784888228461388 size 67108864
13443	081109 203731 26 INFO dfs.FSNamesystem: BLOCK* NameSystem.addStoredBlock: blockMap updated: 10.251.66.192:50010 is added to blk_321836615356633577 size 67108864
13444	081109 203731 26 INFO dfs.FSNamesystem: BLOCK* NameSystem.addStoredBlock: blockMap updated: 10.251.71.16:50010 is added to blk_8777422202136655045 size 67108864
13445	081109 203731 26 INFO dfs.FSNamesystem: BLOCK* NameSystem.allocateBlock: /user/root/rand/_temporary/_task_200811092030_0001_m_000246_0/part-00246. blk_6051030458020008448
13446	081109 203731 27 INFO dfs.FSNamesystem: BLOCK* NameSystem.addStoredBlock: blockMap updated: 10.251.123.33:50010 is added to blk_6051183265899502163 size 67108864
13447	081109 203731 27 INFO dfs.FSNamesystem: BLOCK* NameSystem.addStoredBlock: blockMap updated: 10.251.126.227:50010 is added to blk_-5072585453445081292 size 67108864
13448	081109 203731 27 INFO dfs.FSNamesystem: BLOCK* NameSystem.addStoredBlock: blockMap updated: 10.251.203.129:50010 is added to blk_-1642472372717781799 size 67108864
13449	081109 203731 27 INFO dfs.FSNamesystem: BLOCK* NameSystem.allocateBlock: /user/root/rand/_temporary/_task_200811092030_0001_m_000031_0/part-00031. blk_-3214720873691700791
13450	081109 203731 27 INFO dfs.FSNamesystem: BLOCK* NameSystem.allocateBlock: /user/root/rand/_temporary/_task_200811092030_0001_m_000238_0/part-00238. blk_5693107986425482799
13451	081109 203731 285 INFO dfs.DataNode$PacketResponder: PacketResponder 1 for block blk_6051183265899502163 terminating
13452	081109 203731 285 INFO dfs.DataNode$PacketResponder: Received block blk_6051183265899502163 of size 67108864 from /10.251.106.10
13453	081109 203731 28 INFO dfs.FSNamesystem: BLOCK* NameSystem.addStoredBlock: blockMap updated: 10.250.10.176:50010 is added to blk_-8875853476597140925 size 67108864
13454	081109 203731 28 INFO dfs.FSNamesystem: BLOCK* NameSystem.addStoredBlock: blockMap updated: 10.250.10.213:50010 is added to blk_7969503050474875700 size 67108864
13455	081109 203731 28 INFO dfs.FSNamesystem: BLOCK* NameSystem.addStoredBlock: blockMap updated: 10.250.15.240:50010 is added to blk_4781267590044428130 size 67108864
13456	081109 203731 28 INFO dfs.FSNamesystem: BLOCK* NameSystem.addStoredBlock: blockMap updated: 10.251.106.37:50010 is added to blk_-2296590692202564606 size 67108864
13457	081109 203731 28 INFO dfs.FSNamesystem: BLOCK* NameSystem.addStoredBlock: blockMap updated: 10.251.107.196:50010 is added to blk_-7728911370677562061 size 67108864
13458	081109 203731 28 INFO dfs.FSNamesystem: BLOCK* NameSystem.addStoredBlock: blockMap updated: 10.251.110.196:50010 is added to blk_-5072585453445081292 size 67108864
13459	081109 203731 28 INFO dfs.FSNamesystem: BLOCK* NameSystem.addStoredBlock: blockMap updated: 10.251.26.8:50010 is added to blk_321836615356633577 size 67108864
13460	081109 203731 28 INFO dfs.FSNamesystem: BLOCK* NameSystem.allocateBlock: /user/root/rand/_temporary/_task_200811092030_0001_m_000185_0/part-00185. blk_4656701484219983831
13461	081109 203731 29 INFO dfs.FSNamesystem: BLOCK* NameSystem.addStoredBlock: blockMap updated: 10.251.197.161:50010 is added to blk_993316727245644324 size 67108864
13462	081109 203731 29 INFO dfs.FSNamesystem: BLOCK* NameSystem.addStoredBlock: blockMap updated: 10.251.202.181:50010 is added to blk_5167296799288638509 size 67108864
13463	081109 203731 29 INFO dfs.FSNamesystem: BLOCK* NameSystem.addStoredBlock: blockMap updated: 10.251.75.79:50010 is added to blk_-1642472372717781799 size 67108864
13464	081109 203731 29 INFO dfs.FSNamesystem: BLOCK* NameSystem.allocateBlock: /user/root/rand/_temporary/_task_200811092030_0001_m_000196_0/part-00196. blk_5766851074090750602
13465	081109 203731 29 INFO dfs.FSNamesystem: BLOCK* NameSystem.allocateBlock: /user/root/rand/_temporary/_task_200811092030_0001_m_000324_0/part-00324. blk_6207632596595610640
13466	081109 203731 30 INFO dfs.FSNamesystem: BLOCK* NameSystem.addStoredBlock: blockMap updated: 10.250.15.67:50010 is added to blk_7969503050474875700 size 67108864
13467	081109 203731 31 INFO dfs.FSNamesystem: BLOCK* NameSystem.addStoredBlock: blockMap updated: 10.251.91.229:50010 is added to blk_993316727245644324 size 67108864
13468	081109 203731 31 INFO dfs.FSNamesystem: BLOCK* NameSystem.allocateBlock: /user/root/rand/_temporary/_task_200811092030_0001_m_000267_0/part-00267. blk_-4735114931705254565
13469	081109 203731 31 INFO dfs.FSNamesystem: BLOCK* NameSystem.allocateBlock: /user/root/rand/_temporary/_task_200811092030_0001_m_000351_0/part-00351. blk_7961271969920687234
13470	081109 203731 31 INFO dfs.FSNamesystem: BLOCK* NameSystem.allocateBlock: /user/root/rand/_temporary/_task_200811092030_0001_m_000387_0/part-00387. blk_2390944746532556340
13471	081109 203731 32 INFO dfs.FSNamesystem: BLOCK* NameSystem.addStoredBlock: blockMap updated: 10.251.123.1:50010 is added to blk_7969503050474875700 size 67108864
13472	081109 203731 32 INFO dfs.FSNamesystem: BLOCK* NameSystem.addStoredBlock: blockMap updated: 10.251.203.80:50010 is added to blk_5167296799288638509 size 67108864
13473	081109 203731 32 INFO dfs.FSNamesystem: BLOCK* NameSystem.addStoredBlock: blockMap updated: 10.251.214.225:50010 is added to blk_7516861970835508319 size 67108864
13474	081109 203731 33 INFO dfs.FSNamesystem: BLOCK* NameSystem.addStoredBlock: blockMap updated: 10.250.14.38:50010 is added to blk_993316727245644324 size 67108864
13475	081109 203731 33 INFO dfs.FSNamesystem: BLOCK* NameSystem.addStoredBlock: blockMap updated: 10.251.42.207:50010 is added to blk_7516861970835508319 size 67108864
13476	081109 203731 33 INFO dfs.FSNamesystem: BLOCK* NameSystem.addStoredBlock: blockMap updated: 10.251.70.211:50010 is added to blk_4357939960446746871 size 67108864
13477	081109 203731 33 INFO dfs.FSNamesystem: BLOCK* NameSystem.addStoredBlock: blockMap updated: 10.251.74.134:50010 is added to blk_3315047161001772510 size 67108864
13478	081109 203731 33 INFO dfs.FSNamesystem: BLOCK* NameSystem.addStoredBlock: blockMap updated: 10.251.75.143:50010 is added to blk_5167296799288638509 size 67108864
13479	081109 203731 33 INFO dfs.FSNamesystem: BLOCK* NameSystem.allocateBlock: /user/root/rand/_temporary/_task_200811092030_0001_m_000132_0/part-00132. blk_-4069087448078482387
13480	081109 203731 33 INFO dfs.FSNamesystem: BLOCK* NameSystem.allocateBlock: /user/root/rand/_temporary/_task_200811092030_0001_m_000205_0/part-00205. blk_8175851299320156871
13481	081109 203731 34 INFO dfs.FSNamesystem: BLOCK* NameSystem.addStoredBlock: blockMap updated: 10.250.14.224:50010 is added to blk_-1654072451124467407 size 67108864
13482	081109 203731 34 INFO dfs.FSNamesystem: BLOCK* NameSystem.addStoredBlock: blockMap updated: 10.250.14.224:50010 is added to blk_3151206812686960851 size 67108864
13483	081109 203731 34 INFO dfs.FSNamesystem: BLOCK* NameSystem.addStoredBlock: blockMap updated: 10.251.73.188:50010 is added to blk_4781267590044428130 size 67108864
13484	081109 203731 35 INFO dfs.FSNamesystem: BLOCK* NameSystem.addStoredBlock: blockMap updated: 10.251.37.240:50010 is added to blk_-5748259780611159029 size 67108864
13485	081109 203731 35 INFO dfs.FSNamesystem: BLOCK* NameSystem.addStoredBlock: blockMap updated: 10.251.91.15:50010 is added to blk_-1642472372717781799 size 67108864
13486	081109 203731 35 INFO dfs.FSNamesystem: BLOCK* NameSystem.addStoredBlock: blockMap updated: 10.251.91.32:50010 is added to blk_-2296590692202564606 size 67108864
13487	081109 203731 35 INFO dfs.FSNamesystem: BLOCK* NameSystem.allocateBlock: /user/root/rand/_temporary/_task_200811092030_0001_m_000099_0/part-00099. blk_2750875891098809495
13488	081109 203731 35 INFO dfs.FSNamesystem: BLOCK* NameSystem.allocateBlock: /user/root/rand/_temporary/_task_200811092030_0001_m_000204_0/part-00204. blk_9036962293154594303
13489	081109 203732 187 INFO dfs.DataNode$PacketResponder: PacketResponder 2 for block blk_3297598274644123915 terminating
13490	081109 203732 187 INFO dfs.DataNode$PacketResponder: Received block blk_3297598274644123915 of size 67108864 from /10.251.39.160
13491	081109 203732 191 INFO dfs.DataNode$PacketResponder: PacketResponder 2 for block blk_895573205224681540 terminating
13492	081109 203732 191 INFO dfs.DataNode$PacketResponder: Received block blk_895573205224681540 of size 67108864 from /10.251.202.181
13493	081109 203732 192 INFO dfs.DataNode$PacketResponder: PacketResponder 1 for block blk_3297598274644123915 terminating
13494	081109 203732 192 INFO dfs.DataNode$PacketResponder: Received block blk_3297598274644123915 of size 67108864 from /10.251.39.160
13495	081109 203732 193 INFO dfs.DataNode$PacketResponder: PacketResponder 0 for block blk_3297598274644123915 terminating
13496	081109 203732 193 INFO dfs.DataNode$PacketResponder: PacketResponder 1 for block blk_-7063017458283012347 terminating
13497	081109 203732 193 INFO dfs.DataNode$PacketResponder: Received block blk_3297598274644123915 of size 67108864 from /10.251.89.155
13498	081109 203732 193 INFO dfs.DataNode$PacketResponder: Received block blk_-7063017458283012347 of size 67108864 from /10.250.10.144
13499	081109 203732 194 INFO dfs.DataNode$PacketResponder: PacketResponder 0 for block blk_-7063017458283012347 terminating
13500	081109 203732 194 INFO dfs.DataNode$PacketResponder: Received block blk_-7063017458283012347 of size 67108864 from /10.251.193.175
13501	081109 203732 196 INFO dfs.DataNode$PacketResponder: PacketResponder 2 for block blk_-7063017458283012347 terminating
13502	081109 203732 196 INFO dfs.DataNode$PacketResponder: Received block blk_-7063017458283012347 of size 67108864 from /10.250.10.144
13503	081109 203732 197 INFO dfs.DataNode$PacketResponder: PacketResponder 1 for block blk_895573205224681540 terminating
13504	081109 203732 197 INFO dfs.DataNode$PacketResponder: PacketResponder 2 for block blk_6193328680008897082 terminating
13505	081109 203732 197 INFO dfs.DataNode$PacketResponder: Received block blk_6193328680008897082 of size 67108864 from /10.251.123.132
13506	081109 203732 197 INFO dfs.DataNode$PacketResponder: Received block blk_895573205224681540 of size 67108864 from /10.251.202.181
13507	081109 203732 198 INFO dfs.DataNode$PacketResponder: PacketResponder 2 for block blk_-8550552202569216374 terminating
13508	081109 203732 198 INFO dfs.DataNode$PacketResponder: Received block blk_-8550552202569216374 of size 67108864 from /10.250.5.237
13509	081109 203732 200 INFO dfs.DataNode$PacketResponder: PacketResponder 1 for block blk_-8550552202569216374 terminating
13510	081109 203732 200 INFO dfs.DataNode$PacketResponder: PacketResponder 2 for block blk_-2590057905078537066 terminating
13511	081109 203732 200 INFO dfs.DataNode$PacketResponder: Received block blk_-2590057905078537066 of size 67108864 from /10.251.27.63
13512	081109 203732 200 INFO dfs.DataNode$PacketResponder: Received block blk_-8550552202569216374 of size 67108864 from /10.250.5.237
13513	081109 203732 201 INFO dfs.DataNode$PacketResponder: PacketResponder 0 for block blk_6193328680008897082 terminating
13514	081109 203732 201 INFO dfs.DataNode$PacketResponder: Received block blk_6193328680008897082 of size 67108864 from /10.251.202.181
13515	081109 203732 202 INFO dfs.DataNode$PacketResponder: PacketResponder 0 for block blk_895573205224681540 terminating
13516	081109 203732 202 INFO dfs.DataNode$PacketResponder: PacketResponder 1 for block blk_5946442458287052742 terminating
13517	081109 203732 202 INFO dfs.DataNode$PacketResponder: Received block blk_5946442458287052742 of size 67108864 from /10.250.11.100
13518	081109 203732 202 INFO dfs.DataNode$PacketResponder: Received block blk_895573205224681540 of size 67108864 from /10.251.91.229
13519	081109 203732 203 INFO dfs.DataNode$PacketResponder: PacketResponder 1 for block blk_6193328680008897082 terminating
13520	081109 203732 203 INFO dfs.DataNode$PacketResponder: PacketResponder 2 for block blk_-5279881996242163534 terminating
13521	081109 203732 203 INFO dfs.DataNode$PacketResponder: Received block blk_-5279881996242163534 of size 67108864 from /10.251.91.15
13522	081109 203732 203 INFO dfs.DataNode$PacketResponder: Received block blk_6193328680008897082 of size 67108864 from /10.251.123.132
13523	081109 203732 204 INFO dfs.DataNode$PacketResponder: PacketResponder 1 for block blk_-5279881996242163534 terminating
13524	081109 203732 204 INFO dfs.DataNode$PacketResponder: Received block blk_-5279881996242163534 of size 67108864 from /10.251.91.15
13525	081109 203732 206 INFO dfs.DataNode$PacketResponder: PacketResponder 0 for block blk_-5279881996242163534 terminating
13526	081109 203732 206 INFO dfs.DataNode$PacketResponder: Received block blk_-5279881996242163534 of size 67108864 from /10.251.66.192
13527	081109 203732 207 INFO dfs.DataNode$PacketResponder: PacketResponder 0 for block blk_-6008212789376677736 terminating
13528	081109 203732 207 INFO dfs.DataNode$PacketResponder: Received block blk_-6008212789376677736 of size 67108864 from /10.251.107.19
13529	081109 203732 209 INFO dfs.DataNode$PacketResponder: PacketResponder 0 for block blk_7541034627267962761 terminating
13530	081109 203732 209 INFO dfs.DataNode$PacketResponder: Received block blk_7541034627267962761 of size 67108864 from /10.251.110.196
13531	081109 203732 212 INFO dfs.DataNode$PacketResponder: PacketResponder 0 for block blk_5946442458287052742 terminating
13532	081109 203732 212 INFO dfs.DataNode$PacketResponder: Received block blk_5946442458287052742 of size 67108864 from /10.251.126.83
13533	081109 203732 218 INFO dfs.DataNode$DataXceiver: Receiving block blk_989757635324841895 src: /10.251.199.245:38152 dest: /10.251.199.245:50010
13534	081109 203732 221 INFO dfs.DataNode$DataXceiver: Receiving block blk_5693107986425482799 src: /10.251.197.161:60215 dest: /10.251.197.161:50010
13535	081109 203732 222 INFO dfs.DataNode$DataXceiver: Receiving block blk_-5148302024746610273 src: /10.251.123.132:36797 dest: /10.251.123.132:50010
13536	081109 203732 223 INFO dfs.DataNode$DataXceiver: Receiving block blk_3002288343130146495 src: /10.251.89.155:54231 dest: /10.251.89.155:50010
13537	081109 203732 223 INFO dfs.DataNode$DataXceiver: Receiving block blk_-3894216558450318958 src: /10.250.10.6:36162 dest: /10.250.10.6:50010
13538	081109 203732 223 INFO dfs.DataNode$DataXceiver: Receiving block blk_6207632596595610640 src: /10.251.107.196:49740 dest: /10.251.107.196:50010
13539	081109 203732 224 INFO dfs.DataNode$DataXceiver: Receiving block blk_1996733273985027642 src: /10.251.39.160:54451 dest: /10.251.39.160:50010
13540	081109 203732 224 INFO dfs.DataNode$DataXceiver: Receiving block blk_5360473427736901336 src: /10.251.202.181:48725 dest: /10.251.202.181:50010
13541	081109 203732 224 INFO dfs.DataNode$DataXceiver: Receiving block blk_6207632596595610640 src: /10.251.29.239:36579 dest: /10.251.29.239:50010
13542	081109 203732 224 INFO dfs.DataNode$DataXceiver: Receiving block blk_-706908840318154841 src: /10.251.91.15:33442 dest: /10.251.91.15:50010
13543	081109 203732 226 INFO dfs.DataNode$DataXceiver: Receiving block blk_-2033526004731990730 src: /10.250.17.177:34382 dest: /10.250.17.177:50010
13544	081109 203732 226 INFO dfs.DataNode$DataXceiver: Receiving block blk_8183499320232702853 src: /10.251.109.236:60527 dest: /10.251.109.236:50010
13545	081109 203732 227 INFO dfs.DataNode$DataXceiver: Receiving block blk_-3894216558450318958 src: /10.250.9.207:58252 dest: /10.250.9.207:50010
13546	081109 203732 227 INFO dfs.DataNode$DataXceiver: Receiving block blk_8183499320232702853 src: /10.251.107.98:33602 dest: /10.251.107.98:50010
13547	081109 203732 228 INFO dfs.DataNode$DataXceiver: Receiving block blk_-1748869645497411855 src: /10.251.106.10:34468 dest: /10.251.106.10:50010
13548	081109 203732 228 INFO dfs.DataNode$DataXceiver: Receiving block blk_-3214720873691700791 src: /10.251.125.174:34027 dest: /10.251.125.174:50010
13549	081109 203732 228 INFO dfs.DataNode$DataXceiver: Receiving block blk_5360473427736901336 src: /10.251.202.181:49212 dest: /10.251.202.181:50010
13550	081109 203732 228 INFO dfs.DataNode$DataXceiver: Receiving block blk_9079723482633125133 src: /10.250.5.237:42064 dest: /10.250.5.237:50010
13551	081109 203732 229 INFO dfs.DataNode$DataXceiver: Receiving block blk_2675280659010207693 src: /10.251.198.196:56621 dest: /10.251.198.196:50010
13552	081109 203732 229 INFO dfs.DataNode$DataXceiver: Receiving block blk_-3214720873691700791 src: /10.251.214.225:47296 dest: /10.251.214.225:50010
13553	081109 203732 231 INFO dfs.DataNode$DataXceiver: Receiving block blk_4200831749650787744 src: /10.251.71.146:53139 dest: /10.251.71.146:50010
13554	081109 203732 231 INFO dfs.DataNode$DataXceiver: Receiving block blk_-4613596993997604897 src: /10.251.71.97:54751 dest: /10.251.71.97:50010
13555	081109 203732 231 INFO dfs.DataNode$DataXceiver: Receiving block blk_4672116650423460952 src: /10.250.10.144:60420 dest: /10.250.10.144:50010
13556	081109 203732 231 INFO dfs.DataNode$PacketResponder: Received block blk_-6008212789376677736 of size 67108864 from /10.251.74.227
13557	081109 203732 232 INFO dfs.DataNode$DataXceiver: Receiving block blk_5360473427736901336 src: /10.251.43.21:60896 dest: /10.251.43.21:50010
13558	081109 203732 232 INFO dfs.DataNode$DataXceiver: Receiving block blk_5766851074090750602 src: /10.251.29.239:54198 dest: /10.251.29.239:50010
13559	081109 203732 235 INFO dfs.DataNode$DataXceiver: Receiving block blk_-4125000472442683741 src: /10.251.106.37:54733 dest: /10.251.106.37:50010
13560	081109 203732 235 INFO dfs.DataNode$DataXceiver: Receiving block blk_4200831749650787744 src: /10.250.14.196:39528 dest: /10.250.14.196:50010
13561	081109 203732 235 INFO dfs.DataNode$DataXceiver: Receiving block blk_-5148302024746610273 src: /10.251.123.132:54745 dest: /10.251.123.132:50010
13562	081109 203732 236 INFO dfs.DataNode$DataXceiver: Receiving block blk_4672116650423460952 src: /10.250.10.144:41579 dest: /10.250.10.144:50010
13563	081109 203732 255 INFO dfs.DataNode$DataXceiver: Receiving block blk_-3894216558450318958 src: /10.250.9.207:33407 dest: /10.250.9.207:50010
13564	081109 203732 26 INFO dfs.FSNamesystem: BLOCK* NameSystem.addStoredBlock: blockMap updated: 10.250.10.144:50010 is added to blk_6193328680008897082 size 67108864
13565	081109 203732 26 INFO dfs.FSNamesystem: BLOCK* NameSystem.addStoredBlock: blockMap updated: 10.251.66.192:50010 is added to blk_-5279881996242163534 size 67108864
13566	081109 203732 26 INFO dfs.FSNamesystem: BLOCK* NameSystem.allocateBlock: /user/root/rand/_temporary/_task_200811092030_0001_m_000243_0/part-00243. blk_9079723482633125133
13567	081109 203732 26 INFO dfs.FSNamesystem: BLOCK* NameSystem.allocateBlock: /user/root/rand/_temporary/_task_200811092030_0001_m_000356_0/part-00356. blk_-706908840318154841
13568	081109 203732 27 INFO dfs.FSNamesystem: BLOCK* NameSystem.addStoredBlock: blockMap updated: 10.251.107.98:50010 is added to blk_1769784888228461388 size 67108864
13569	081109 203732 27 INFO dfs.FSNamesystem: BLOCK* NameSystem.addStoredBlock: blockMap updated: 10.251.91.15:50010 is added to blk_-5279881996242163534 size 67108864
13570	081109 203732 27 INFO dfs.FSNamesystem: BLOCK* NameSystem.allocateBlock: /user/root/rand/_temporary/_task_200811092030_0001_m_000115_0/part-00115. blk_-5148302024746610273
13571	081109 203732 28 INFO dfs.FSNamesystem: BLOCK* NameSystem.addStoredBlock: blockMap updated: 10.251.73.188:50010 is added to blk_1769784888228461388 size 67108864
13572	081109 203732 28 INFO dfs.FSNamesystem: BLOCK* NameSystem.allocateBlock: /user/root/rand/_temporary/_task_200811092030_0001_m_000191_0/part-00191. blk_-1748869645497411855
13573	081109 203732 28 INFO dfs.FSNamesystem: BLOCK* NameSystem.allocateBlock: /user/root/rand/_temporary/_task_200811092030_0001_m_000350_0/part-00350. blk_989757635324841895
13574	081109 203732 29 INFO dfs.FSNamesystem: BLOCK* NameSystem.addStoredBlock: blockMap updated: 10.251.199.245:50010 is added to blk_321836615356633577 size 67108864
13575	081109 203732 29 INFO dfs.FSNamesystem: BLOCK* NameSystem.addStoredBlock: blockMap updated: 10.251.202.181:50010 is added to blk_6193328680008897082 size 67108864
13576	081109 203732 29 INFO dfs.FSNamesystem: BLOCK* NameSystem.addStoredBlock: blockMap updated: 10.251.202.181:50010 is added to blk_895573205224681540 size 67108864
13577	081109 203732 29 INFO dfs.FSNamesystem: BLOCK* NameSystem.addStoredBlock: blockMap updated: 10.251.31.5:50010 is added to blk_895573205224681540 size 67108864
13578	081109 203732 29 INFO dfs.FSNamesystem: BLOCK* NameSystem.addStoredBlock: blockMap updated: 10.251.91.229:50010 is added to blk_895573205224681540 size 67108864
13579	081109 203732 303 INFO dfs.DataNode$DataXceiver: Receiving block blk_2390944746532556340 src: /10.251.90.239:53733 dest: /10.251.90.239:50010
13580	081109 203732 304 INFO dfs.DataNode$DataXceiver: Receiving block blk_9079723482633125133 src: /10.250.5.237:45951 dest: /10.250.5.237:50010
13581	081109 203732 30 INFO dfs.FSNamesystem: BLOCK* NameSystem.addStoredBlock: blockMap updated: 10.250.11.53:50010 is added to blk_-5279881996242163534 size 67108864
13582	081109 203732 30 INFO dfs.FSNamesystem: BLOCK* NameSystem.addStoredBlock: blockMap updated: 10.251.110.160:50010 is added to blk_5946442458287052742 size 67108864
13583	081109 203732 31 INFO dfs.FSNamesystem: BLOCK* NameSystem.addStoredBlock: blockMap updated: 10.251.106.10:50010 is added to blk_6051183265899502163 size 67108864
13584	081109 203732 31 INFO dfs.FSNamesystem: BLOCK* NameSystem.addStoredBlock: blockMap updated: 10.251.126.83:50010 is added to blk_5946442458287052742 size 67108864
13585	081109 203732 31 INFO dfs.FSNamesystem: BLOCK* NameSystem.addStoredBlock: blockMap updated: 10.251.215.16:50010 is added to blk_-2296590692202564606 size 67108864
13586	081109 203732 31 INFO dfs.FSNamesystem: BLOCK* NameSystem.addStoredBlock: blockMap updated: 10.251.39.160:50010 is added to blk_3297598274644123915 size 67108864
13587	081109 203732 31 INFO dfs.FSNamesystem: BLOCK* NameSystem.allocateBlock: /user/root/rand/_temporary/_task_200811092030_0001_m_000028_0/part-00028. blk_5360473427736901336
13588	081109 203732 31 INFO dfs.FSNamesystem: BLOCK* NameSystem.allocateBlock: /user/root/rand/_temporary/_task_200811092030_0001_m_000105_0/part-00105. blk_8183499320232702853
13589	081109 203732 31 INFO dfs.FSNamesystem: BLOCK* NameSystem.allocateBlock: /user/root/rand/_temporary/_task_200811092030_0001_m_000354_0/part-00354. blk_4672116650423460952
13590	081109 203732 32 INFO dfs.FSNamesystem: BLOCK* NameSystem.addStoredBlock: blockMap updated: 10.250.7.96:50010 is added to blk_-8550552202569216374 size 67108864
13591	081109 203732 32 INFO dfs.FSNamesystem: BLOCK* NameSystem.addStoredBlock: blockMap updated: 10.251.107.242:50010 is added to blk_-2590057905078537066 size 67108864
13592	081109 203732 32 INFO dfs.FSNamesystem: BLOCK* NameSystem.addStoredBlock: blockMap updated: 10.251.30.101:50010 is added to blk_3297598274644123915 size 67108864
13593	081109 203732 32 INFO dfs.FSNamesystem: BLOCK* NameSystem.allocateBlock: /user/root/rand/_temporary/_task_200811092030_0001_m_000178_0/part-00178. blk_1996733273985027642
13594	081109 203732 33 INFO dfs.FSNamesystem: BLOCK* NameSystem.addStoredBlock: blockMap updated: 10.251.111.228:50010 is added to blk_-2590057905078537066 size 67108864
13595	081109 203732 33 INFO dfs.FSNamesystem: BLOCK* NameSystem.addStoredBlock: blockMap updated: 10.251.123.132:50010 is added to blk_6193328680008897082 size 67108864
13596	081109 203732 34 INFO dfs.FSNamesystem: BLOCK* NameSystem.addStoredBlock: blockMap updated: 10.250.10.144:50010 is added to blk_-7063017458283012347 size 67108864
13597	081109 203732 34 INFO dfs.FSNamesystem: BLOCK* NameSystem.addStoredBlock: blockMap updated: 10.250.5.237:50010 is added to blk_-8550552202569216374 size 67108864
13598	081109 203732 34 INFO dfs.FSNamesystem: BLOCK* NameSystem.addStoredBlock: blockMap updated: 10.250.9.207:50010 is added to blk_-5072585453445081292 size 67108864
13599	081109 203732 34 INFO dfs.FSNamesystem: BLOCK* NameSystem.addStoredBlock: blockMap updated: 10.251.107.19:50010 is added to blk_-6008212789376677736 size 67108864
13600	081109 203732 34 INFO dfs.FSNamesystem: BLOCK* NameSystem.addStoredBlock: blockMap updated: 10.251.107.19:50010 is added to blk_-8550552202569216374 size 67108864
13601	081109 203732 34 INFO dfs.FSNamesystem: BLOCK* NameSystem.addStoredBlock: blockMap updated: 10.251.89.155:50010 is added to blk_3297598274644123915 size 67108864
13602	081109 203732 35 INFO dfs.FSNamesystem: BLOCK* NameSystem.addStoredBlock: blockMap updated: 10.251.123.99:50010 is added to blk_-7063017458283012347 size 67108864
13603	081109 203732 35 INFO dfs.FSNamesystem: BLOCK* NameSystem.addStoredBlock: blockMap updated: 10.251.193.175:50010 is added to blk_-7063017458283012347 size 67108864
13604	081109 203732 35 INFO dfs.FSNamesystem: BLOCK* NameSystem.addStoredBlock: blockMap updated: 10.251.26.177:50010 is added to blk_-6008212789376677736 size 67108864
13605	081109 203732 35 INFO dfs.FSNamesystem: BLOCK* NameSystem.addStoredBlock: blockMap updated: 10.251.71.240:50010 is added to blk_107679466757866349 size 67108864
13606	081109 203732 35 INFO dfs.FSNamesystem: BLOCK* NameSystem.addStoredBlock: blockMap updated: 10.251.71.97:50010 is added to blk_7541034627267962761 size 67108864
13607	081109 203732 35 INFO dfs.FSNamesystem: BLOCK* NameSystem.allocateBlock: /user/root/rand/_temporary/_task_200811092030_0001_m_000066_0/part-00066. blk_-4125000472442683741
13608	081109 203732 35 INFO dfs.FSNamesystem: BLOCK* NameSystem.allocateBlock: /user/root/rand/_temporary/_task_200811092030_0001_m_000150_0/part-00150. blk_-3894216558450318958
13609	081109 203733 180 INFO dfs.DataNode$PacketResponder: PacketResponder 0 for block blk_1490688748544451537 terminating
13610	081109 203733 180 INFO dfs.DataNode$PacketResponder: Received block blk_1490688748544451537 of size 67108864 from /10.250.15.67
13611	081109 203733 187 INFO dfs.DataNode$PacketResponder: PacketResponder 1 for block blk_1490688748544451537 terminating
13612	081109 203733 187 INFO dfs.DataNode$PacketResponder: PacketResponder 2 for block blk_1490688748544451537 terminating
13613	081109 203733 187 INFO dfs.DataNode$PacketResponder: Received block blk_1490688748544451537 of size 67108864 from /10.251.71.146
13614	081109 203733 187 INFO dfs.DataNode$PacketResponder: Received block blk_1490688748544451537 of size 67108864 from /10.251.71.146
13615	081109 203733 197 INFO dfs.DataNode$PacketResponder: PacketResponder 2 for block blk_-6655959078707447485 terminating
13616	081109 203733 197 INFO dfs.DataNode$PacketResponder: Received block blk_-6655959078707447485 of size 67108864 from /10.251.199.19
13617	081109 203733 199 INFO dfs.DataNode$PacketResponder: PacketResponder 1 for block blk_-6655959078707447485 terminating
13618	081109 203733 199 INFO dfs.DataNode$PacketResponder: PacketResponder 2 for block blk_7541034627267962761 terminating
13619	081109 203733 199 INFO dfs.DataNode$PacketResponder: Received block blk_-6655959078707447485 of size 67108864 from /10.251.199.19
13620	081109 203733 199 INFO dfs.DataNode$PacketResponder: Received block blk_7541034627267962761 of size 67108864 from /10.250.7.244
13621	081109 203733 200 INFO dfs.DataNode$PacketResponder: PacketResponder 2 for block blk_-6718797860845987198 terminating
13622	081109 203733 200 INFO dfs.DataNode$PacketResponder: Received block blk_-6718797860845987198 of size 67108864 from /10.251.91.32
13623	081109 203733 201 INFO dfs.DataNode$PacketResponder: PacketResponder 0 for block blk_-8155409043034871623 terminating
13624	081109 203733 201 INFO dfs.DataNode$PacketResponder: PacketResponder 0 for block blk_-8664994210876032912 terminating
13625	081109 203733 201 INFO dfs.DataNode$PacketResponder: Received block blk_-8155409043034871623 of size 67108864 from /10.251.107.227
13626	081109 203733 201 INFO dfs.DataNode$PacketResponder: Received block blk_-8664994210876032912 of size 67108864 from /10.250.15.101
13627	081109 203733 202 INFO dfs.DataNode$PacketResponder: PacketResponder 1 for block blk_-6718797860845987198 terminating
13628	081109 203733 202 INFO dfs.DataNode$PacketResponder: Received block blk_-6718797860845987198 of size 67108864 from /10.251.91.32
13629	081109 203733 203 INFO dfs.DataNode$PacketResponder: PacketResponder 1 for block blk_-8155409043034871623 terminating
13630	081109 203733 203 INFO dfs.DataNode$PacketResponder: PacketResponder 1 for block blk_9030118082126734881 terminating
13631	081109 203733 203 INFO dfs.DataNode$PacketResponder: Received block blk_-8155409043034871623 of size 67108864 from /10.251.74.134
13632	081109 203733 203 INFO dfs.DataNode$PacketResponder: Received block blk_9030118082126734881 of size 67108864 from /10.251.42.246
13633	081109 203733 204 INFO dfs.DataNode$PacketResponder: PacketResponder 0 for block blk_-6433706936017306230 terminating
13634	081109 203733 204 INFO dfs.DataNode$PacketResponder: PacketResponder 1 for block blk_-2221822678673544645 terminating
13635	081109 203733 204 INFO dfs.DataNode$PacketResponder: Received block blk_-2221822678673544645 of size 67108864 from /10.251.199.225
13636	081109 203733 204 INFO dfs.DataNode$PacketResponder: Received block blk_-6433706936017306230 of size 67108864 from /10.251.111.80
13637	081109 203733 206 INFO dfs.DataNode$PacketResponder: PacketResponder 1 for block blk_-8664994210876032912 terminating
13638	081109 203733 206 INFO dfs.DataNode$PacketResponder: Received block blk_-8664994210876032912 of size 67108864 from /10.251.110.196
13639	081109 203733 207 INFO dfs.DataNode$PacketResponder: PacketResponder 0 for block blk_-2204995146652735082 terminating
13640	081109 203733 207 INFO dfs.DataNode$PacketResponder: PacketResponder 1 for block blk_5479991025666274622 terminating
13641	081109 203733 207 INFO dfs.DataNode$PacketResponder: Received block blk_-2204995146652735082 of size 67108864 from /10.251.215.16
13642	081109 203733 207 INFO dfs.DataNode$PacketResponder: Received block blk_5479991025666274622 of size 67108864 from /10.251.194.245
13643	081109 203733 208 INFO dfs.DataNode$PacketResponder: PacketResponder 0 for block blk_-6718797860845987198 terminating
13644	081109 203733 208 INFO dfs.DataNode$PacketResponder: Received block blk_-6718797860845987198 of size 67108864 from /10.251.214.112
13645	081109 203733 209 INFO dfs.DataNode$PacketResponder: PacketResponder 2 for block blk_-2204995146652735082 terminating
13646	081109 203733 209 INFO dfs.DataNode$PacketResponder: PacketResponder 2 for block blk_-6008212789376677736 terminating
13647	081109 203733 209 INFO dfs.DataNode$PacketResponder: Received block blk_-2204995146652735082 of size 67108864 from /10.251.39.192
13648	081109 203733 209 INFO dfs.DataNode$PacketResponder: Received block blk_-6008212789376677736 of size 67108864 from /10.251.74.227
13649	081109 203733 210 INFO dfs.DataNode$PacketResponder: PacketResponder 0 for block blk_-2802430458716469962 terminating
13650	081109 203733 210 INFO dfs.DataNode$PacketResponder: PacketResponder 0 for block blk_-6655959078707447485 terminating
13651	081109 203733 210 INFO dfs.DataNode$PacketResponder: Received block blk_-2802430458716469962 of size 67108864 from /10.251.123.99
13652	081109 203733 210 INFO dfs.DataNode$PacketResponder: Received block blk_-6655959078707447485 of size 67108864 from /10.251.66.63
13653	081109 203733 211 INFO dfs.DataNode$PacketResponder: PacketResponder 1 for block blk_-6433706936017306230 terminating
13654	081109 203733 211 INFO dfs.DataNode$PacketResponder: PacketResponder 2 for block blk_-8155409043034871623 terminating
13655	081109 203733 211 INFO dfs.DataNode$PacketResponder: Received block blk_-6433706936017306230 of size 67108864 from /10.251.30.101
13656	081109 203733 211 INFO dfs.DataNode$PacketResponder: Received block blk_-8155409043034871623 of size 67108864 from /10.251.74.134
13657	081109 203733 213 INFO dfs.DataNode$PacketResponder: PacketResponder 0 for block blk_-2221822678673544645 terminating
13658	081109 203733 213 INFO dfs.DataNode$PacketResponder: PacketResponder 1 for block blk_7541034627267962761 terminating
13659	081109 203733 213 INFO dfs.DataNode$PacketResponder: PacketResponder 2 for block blk_-6433706936017306230 terminating
13660	081109 203733 213 INFO dfs.DataNode$PacketResponder: Received block blk_-2221822678673544645 of size 67108864 from /10.251.125.237
13661	081109 203733 213 INFO dfs.DataNode$PacketResponder: Received block blk_-6433706936017306230 of size 67108864 from /10.251.30.101
13662	081109 203733 213 INFO dfs.DataNode$PacketResponder: Received block blk_7541034627267962761 of size 67108864 from /10.250.7.244
13663	081109 203733 216 INFO dfs.DataNode$PacketResponder: PacketResponder 2 for block blk_-8664994210876032912 terminating
13664	081109 203733 216 INFO dfs.DataNode$PacketResponder: Received block blk_-8664994210876032912 of size 67108864 from /10.251.110.196
13665	081109 203733 218 INFO dfs.DataNode$DataXceiver: Receiving block blk_4672116650423460952 src: /10.251.89.155:54207 dest: /10.251.89.155:50010
13666	081109 203733 220 INFO dfs.DataNode$PacketResponder: PacketResponder 0 for block blk_5479991025666274622 terminating
13667	081109 203733 220 INFO dfs.DataNode$PacketResponder: PacketResponder 0 for block blk_9030118082126734881 terminating
13668	081109 203733 220 INFO dfs.DataNode$PacketResponder: PacketResponder 2 for block blk_-2221822678673544645 terminating
13669	081109 203733 220 INFO dfs.DataNode$PacketResponder: Received block blk_-2221822678673544645 of size 67108864 from /10.251.199.225
13670	081109 203733 220 INFO dfs.DataNode$PacketResponder: Received block blk_5479991025666274622 of size 67108864 from /10.251.39.209
13671	081109 203733 220 INFO dfs.DataNode$PacketResponder: Received block blk_9030118082126734881 of size 67108864 from /10.251.106.50
13672	081109 203733 221 INFO dfs.DataNode$DataXceiver: Receiving block blk_-2417760904557009288 src: /10.250.7.244:40290 dest: /10.250.7.244:50010
13673	081109 203733 222 INFO dfs.DataNode$DataXceiver: Receiving block blk_-1115810796127545022 src: /10.251.74.227:34858 dest: /10.251.74.227:50010
13674	081109 203733 223 INFO dfs.DataNode$DataXceiver: Receiving block blk_-3956832056423535447 src: /10.251.110.196:36676 dest: /10.251.110.196:50010
13675	081109 203733 224 INFO dfs.DataNode$DataXceiver: Receiving block blk_1996733273985027642 src: /10.251.39.160:59531 dest: /10.251.39.160:50010
13676	081109 203733 224 INFO dfs.DataNode$DataXceiver: Receiving block blk_5194028516980543224 src: /10.251.27.63:43581 dest: /10.251.27.63:50010
13677	081109 203733 224 INFO dfs.DataNode$DataXceiver: Receiving block blk_6480224191171674368 src: /10.251.199.19:48048 dest: /10.251.199.19:50010
13678	081109 203733 224 INFO dfs.DataNode$DataXceiver: Receiving block blk_-706908840318154841 src: /10.251.91.15:38179 dest: /10.251.91.15:50010
13679	081109 203733 225 INFO dfs.DataNode$DataXceiver: Receiving block blk_5693107986425482799 src: /10.251.123.33:57723 dest: /10.251.123.33:50010
13680	081109 203733 226 INFO dfs.DataNode$DataXceiver: Receiving block blk_-8335116278707491872 src: /10.251.30.101:39162 dest: /10.251.30.101:50010
13681	081109 203733 226 INFO dfs.DataNode$DataXceiver: Receiving block blk_989757635324841895 src: /10.251.199.245:37434 dest: /10.251.199.245:50010
13682	081109 203733 227 INFO dfs.DataNode$DataXceiver: Receiving block blk_-2452869049009213649 src: /10.251.91.32:36192 dest: /10.251.91.32:50010
13683	081109 203733 227 INFO dfs.DataNode$DataXceiver: Receiving block blk_-706908840318154841 src: /10.250.6.223:56257 dest: /10.250.6.223:50010
13684	081109 203733 228 INFO dfs.DataNode$DataXceiver: Receiving block blk_-2452869049009213649 src: /10.251.91.32:42131 dest: /10.251.91.32:50010
13685	081109 203733 228 INFO dfs.DataNode$DataXceiver: Receiving block blk_5194028516980543224 src: /10.251.27.63:57919 dest: /10.251.27.63:50010
13686	081109 203733 228 INFO dfs.DataNode$DataXceiver: Receiving block blk_6480224191171674368 src: /10.251.199.19:56764 dest: /10.251.199.19:50010
13687	081109 203733 229 INFO dfs.DataNode$DataXceiver: Receiving block blk_-1115810796127545022 src: /10.251.74.227:51910 dest: /10.251.74.227:50010
13688	081109 203733 229 INFO dfs.DataNode$DataXceiver: Receiving block blk_-1748869645497411855 src: /10.251.106.10:49690 dest: /10.251.106.10:50010
13689	081109 203733 231 INFO dfs.DataNode$PacketResponder: PacketResponder 1 for block blk_-6008212789376677736 terminating
13690	081109 203733 232 INFO dfs.DataNode$DataXceiver: Receiving block blk_-7552081187740520352 src: /10.251.39.192:52755 dest: /10.251.39.192:50010
13691	081109 203733 233 INFO dfs.DataNode$DataXceiver: Receiving block blk_1996733273985027642 src: /10.251.91.32:34517 dest: /10.251.91.32:50010
13692	081109 203733 233 INFO dfs.DataNode$DataXceiver: Receiving block blk_-8335116278707491872 src: /10.251.30.101:47119 dest: /10.251.30.101:50010
13693	081109 203733 234 INFO dfs.DataNode$DataXceiver: Receiving block blk_989757635324841895 src: /10.251.194.129:53026 dest: /10.251.194.129:50010
13694	081109 203733 235 INFO dfs.DataNode$DataXceiver: Receiving block blk_-3956832056423535447 src: /10.250.11.100:53058 dest: /10.250.11.100:50010
13695	081109 203733 236 INFO dfs.DataNode$DataXceiver: Receiving block blk_-90485971640555718 src: /10.251.110.196:48808 dest: /10.251.110.196:50010
13696	081109 203733 236 INFO dfs.DataNode$PacketResponder: PacketResponder 1 for block blk_-2204995146652735082 terminating
13697	081109 203733 236 INFO dfs.DataNode$PacketResponder: Received block blk_-2204995146652735082 of size 67108864 from /10.251.39.192
13698	081109 203733 237 INFO dfs.DataNode$DataXceiver: Receiving block blk_-1748869645497411855 src: /10.251.194.245:42025 dest: /10.251.194.245:50010
13699	081109 203733 237 INFO dfs.DataNode$DataXceiver: Receiving block blk_-2213979973897387465 src: /10.251.71.146:55407 dest: /10.251.71.146:50010
13700	081109 203733 238 INFO dfs.DataNode$DataXceiver: Receiving block blk_-2294591454857120265 src: /10.251.74.134:44397 dest: /10.251.74.134:50010
13701	081109 203733 239 INFO dfs.DataNode$DataXceiver: Receiving block blk_-5148302024746610273 src: /10.251.42.9:42026 dest: /10.251.42.9:50010
13702	081109 203733 257 INFO dfs.DataNode$DataXceiver: Receiving block blk_-8394978123314571529 src: /10.251.107.19:47710 dest: /10.251.107.19:50010
13703	081109 203733 26 INFO dfs.FSNamesystem: BLOCK* NameSystem.addStoredBlock: blockMap updated: 10.250.7.244:50010 is added to blk_7541034627267962761 size 67108864
13704	081109 203733 26 INFO dfs.FSNamesystem: BLOCK* NameSystem.addStoredBlock: blockMap updated: 10.251.111.80:50010 is added to blk_-6433706936017306230 size 67108864
13705	081109 203733 26 INFO dfs.FSNamesystem: BLOCK* NameSystem.addStoredBlock: blockMap updated: 10.251.30.101:50010 is added to blk_-6433706936017306230 size 67108864
13706	081109 203733 275 INFO dfs.DataNode$PacketResponder: PacketResponder 2 for block blk_5946442458287052742 terminating
13707	081109 203733 275 INFO dfs.DataNode$PacketResponder: Received block blk_5946442458287052742 of size 67108864 from /10.250.11.100
13708	081109 203733 27 INFO dfs.FSNamesystem: BLOCK* NameSystem.addStoredBlock: blockMap updated: 10.250.15.67:50010 is added to blk_1490688748544451537 size 67108864
13709	081109 203733 27 INFO dfs.FSNamesystem: BLOCK* NameSystem.addStoredBlock: blockMap updated: 10.251.66.63:50010 is added to blk_-6655959078707447485 size 67108864
13710	081109 203733 27 INFO dfs.FSNamesystem: BLOCK* NameSystem.addStoredBlock: blockMap updated: 10.251.71.146:50010 is added to blk_1490688748544451537 size 67108864
13711	081109 203733 27 INFO dfs.FSNamesystem: BLOCK* NameSystem.addStoredBlock: blockMap updated: 10.251.74.227:50010 is added to blk_-6008212789376677736 size 67108864
13712	081109 203733 27 INFO dfs.FSNamesystem: BLOCK* NameSystem.allocateBlock: /user/root/rand/_temporary/_task_200811092030_0001_m_000023_0/part-00023. blk_-8335116278707491872
13713	081109 203733 28 INFO dfs.FSNamesystem: BLOCK* NameSystem.addStoredBlock: blockMap updated: 10.250.14.143:50010 is added to blk_-6433706936017306230 size 67108864
13714	081109 203733 28 INFO dfs.FSNamesystem: BLOCK* NameSystem.addStoredBlock: blockMap updated: 10.251.214.130:50010 is added to blk_-8664994210876032912 size 67108864
13715	081109 203733 28 INFO dfs.FSNamesystem: BLOCK* NameSystem.addStoredBlock: blockMap updated: 10.251.27.63:50010 is added to blk_-2590057905078537066 size 67108864
13716	081109 203733 28 INFO dfs.FSNamesystem: BLOCK* NameSystem.allocateBlock: /user/root/rand/_temporary/_task_200811092030_0001_m_000359_0/part-00359. blk_6480224191171674368
13717	081109 203733 29 INFO dfs.FSNamesystem: BLOCK* NameSystem.addStoredBlock: blockMap updated: 10.251.199.19:50010 is added to blk_-6655959078707447485 size 67108864
13718	081109 203733 29 INFO dfs.FSNamesystem: BLOCK* NameSystem.addStoredBlock: blockMap updated: 10.251.214.112:50010 is added to blk_-6718797860845987198 size 67108864
13719	081109 203733 29 INFO dfs.FSNamesystem: BLOCK* NameSystem.allocateBlock: /user/root/rand/_temporary/_task_200811092030_0001_m_000069_0/part-00069. blk_-2294591454857120265
13720	081109 203733 29 INFO dfs.FSNamesystem: BLOCK* NameSystem.allocateBlock: /user/root/rand/_temporary/_task_200811092030_0001_m_000179_0/part-00179. blk_-3956832056423535447
13721	081109 203733 29 INFO dfs.FSNamesystem: BLOCK* NameSystem.allocateBlock: /user/root/rand/_temporary/_task_200811092030_0001_m_000319_0/part-00319. blk_-7552081187740520352
13722	081109 203733 306 INFO dfs.DataNode$DataXceiver: Receiving block blk_-3956832056423535447 src: /10.250.11.100:37415 dest: /10.250.11.100:50010
13723	081109 203733 30 INFO dfs.FSNamesystem: BLOCK* NameSystem.addStoredBlock: blockMap updated: 10.250.11.100:50010 is added to blk_5946442458287052742 size 67108864
13724	081109 203733 31 INFO dfs.FSNamesystem: BLOCK* NameSystem.addStoredBlock: blockMap updated: 10.251.107.227:50010 is added to blk_-8155409043034871623 size 67108864
13725	081109 203733 31 INFO dfs.FSNamesystem: BLOCK* NameSystem.addStoredBlock: blockMap updated: 10.251.111.228:50010 is added to blk_9030118082126734881 size 67108864
13726	081109 203733 31 INFO dfs.FSNamesystem: BLOCK* NameSystem.addStoredBlock: blockMap updated: 10.251.91.32:50010 is added to blk_-6718797860845987198 size 67108864
13727	081109 203733 31 INFO dfs.FSNamesystem: BLOCK* NameSystem.allocateBlock: /user/root/rand/_temporary/_task_200811092030_0001_m_000107_0/part-00107. blk_-2213979973897387465
13728	081109 203733 32 INFO dfs.FSNamesystem: BLOCK* NameSystem.addStoredBlock: blockMap updated: 10.250.19.16:50010 is added to blk_-6718797860845987198 size 67108864
13729	081109 203733 32 INFO dfs.FSNamesystem: BLOCK* NameSystem.addStoredBlock: blockMap updated: 10.251.199.159:50010 is added to blk_1490688748544451537 size 67108864
13730	081109 203733 32 INFO dfs.FSNamesystem: BLOCK* NameSystem.allocateBlock: /user/root/rand/_temporary/_task_200811092030_0001_m_000056_0/part-00056. blk_-1115810796127545022
13731	081109 203733 33 INFO dfs.FSNamesystem: BLOCK* NameSystem.addStoredBlock: blockMap updated: 10.251.31.5:50010 is added to blk_-6655959078707447485 size 67108864
13732	081109 203733 33 INFO dfs.FSNamesystem: BLOCK* NameSystem.addStoredBlock: blockMap updated: 10.251.91.84:50010 is added to blk_-2204995146652735082 size 67108864
13733	081109 203733 33 INFO dfs.FSNamesystem: BLOCK* NameSystem.allocateBlock: /user/root/rand/_temporary/_task_200811092030_0001_m_000236_0/part-00236. blk_-2417760904557009288
13734	081109 203733 34 INFO dfs.FSNamesystem: BLOCK* NameSystem.addStoredBlock: blockMap updated: 10.251.106.50:50010 is added to blk_9030118082126734881 size 67108864
13735	081109 203733 34 INFO dfs.FSNamesystem: BLOCK* NameSystem.addStoredBlock: blockMap updated: 10.251.65.203:50010 is added to blk_-8155409043034871623 size 67108864
13736	081109 203733 34 INFO dfs.FSNamesystem: BLOCK* NameSystem.allocateBlock: /user/root/rand/_temporary/_task_200811092030_0001_m_000383_0/part-00383. blk_-2452869049009213649
13737	081109 203733 35 INFO dfs.FSNamesystem: BLOCK* NameSystem.addStoredBlock: blockMap updated: 10.251.110.196:50010 is added to blk_7541034627267962761 size 67108864
13738	081109 203733 35 INFO dfs.FSNamesystem: BLOCK* NameSystem.addStoredBlock: blockMap updated: 10.251.39.192:50010 is added to blk_-2204995146652735082 size 67108864
13739	081109 203733 35 INFO dfs.FSNamesystem: BLOCK* NameSystem.allocateBlock: /user/root/rand/_temporary/_task_200811092030_0001_m_000169_0/part-00169. blk_5194028516980543224
13740	081109 203734 13 INFO dfs.DataBlockScanner: Verification succeeded for blk_7132759917805418067